
namei.o:     file format elf64-x86-64


Disassembly of section .text:

0000000000000000 <get_write_access>:
acl_by_type():
/home/lookfiresu/Desktop/my_linux-3.13.0/include/linux/fs.h:2333
 * except for the cases where we don't hold i_writecount yet. Then we need to
 * use {get,deny}_write_access() - these functions check the sign and refuse
 * to do the change if sign is wrong.
 */
static inline int get_write_access(struct inode *inode)
{
       0:	push   %rbp
       1:	lea    0x138(%rdi),%rcx
atomic_inc_unless_negative():
/home/lookfiresu/Desktop/my_linux-3.13.0/include/linux/atomic.h:67

#ifndef atomic_inc_unless_negative
static inline int atomic_inc_unless_negative(atomic_t *p)
{
	int v, v1;
	for (v = 0; v >= 0; v = v1) {
       8:	xor    %edx,%edx
get_write_access():
/home/lookfiresu/Desktop/my_linux-3.13.0/include/linux/fs.h:2333
       a:	mov    %rsp,%rbp
atomic_inc_unless_negative():
/home/lookfiresu/Desktop/my_linux-3.13.0/include/linux/atomic.h:68
		v1 = atomic_cmpxchg(p, v, v + 1);
       d:	lea    0x1(%rdx),%esi
atomic_cmpxchg():
/home/lookfiresu/Desktop/my_linux-3.13.0/arch/x86/include/asm/atomic.h:176
#define atomic_inc_return(v)  (atomic_add_return(1, v))
#define atomic_dec_return(v)  (atomic_sub_return(1, v))

static inline int atomic_cmpxchg(atomic_t *v, int old, int new)
{
	return cmpxchg(&v->counter, old, new);
      10:	mov    %edx,%eax
      12:	lock cmpxchg %esi,(%rcx)
atomic_inc_unless_negative():
/home/lookfiresu/Desktop/my_linux-3.13.0/include/linux/atomic.h:69
		if (likely(v1 == v))
      16:	cmp    %eax,%edx
      18:	jne    1e <get_write_access+0x1e>
get_write_access():
/home/lookfiresu/Desktop/my_linux-3.13.0/include/linux/fs.h:2334
	return atomic_inc_unless_negative(&inode->i_writecount) ? 0 : -ETXTBSY;
      1a:	xor    %eax,%eax
/home/lookfiresu/Desktop/my_linux-3.13.0/include/linux/fs.h:2335
}
      1c:	pop    %rbp
      1d:	retq   
atomic_inc_unless_negative():
/home/lookfiresu/Desktop/my_linux-3.13.0/include/linux/atomic.h:67

#ifndef atomic_inc_unless_negative
static inline int atomic_inc_unless_negative(atomic_t *p)
{
	int v, v1;
	for (v = 0; v >= 0; v = v1) {
      1e:	test   %eax,%eax
      20:	jns    29 <get_write_access+0x29>
get_write_access():
/home/lookfiresu/Desktop/my_linux-3.13.0/include/linux/fs.h:2334
 * use {get,deny}_write_access() - these functions check the sign and refuse
 * to do the change if sign is wrong.
 */
static inline int get_write_access(struct inode *inode)
{
	return atomic_inc_unless_negative(&inode->i_writecount) ? 0 : -ETXTBSY;
      22:	mov    $0xffffffe6,%eax
/home/lookfiresu/Desktop/my_linux-3.13.0/include/linux/fs.h:2335
}
      27:	pop    %rbp
      28:	retq   
atomic_inc_unless_negative():
/home/lookfiresu/Desktop/my_linux-3.13.0/include/linux/atomic.h:67
      29:	mov    %eax,%edx
      2b:	jmp    d <get_write_access+0xd>
lookup_slow():
      2d:	nopl   (%rax)

0000000000000030 <dget>:
/home/lookfiresu/Desktop/my_linux-3.13.0/include/linux/dcache.h:359
		dentry->d_lockref.count++;
	return dentry;
}

static inline struct dentry *dget(struct dentry *dentry)
{
      30:	push   %rbp
/home/lookfiresu/Desktop/my_linux-3.13.0/include/linux/dcache.h:360
  MY_PRINTK(get_current()->comm);
      31:	mov    $0x0,%rdx
get_current():
/home/lookfiresu/Desktop/my_linux-3.13.0/arch/x86/include/asm/current.h:19

DECLARE_PER_CPU(struct task_struct *, current_task);

static __always_inline struct task_struct *get_current(void)
{
	return this_cpu_read_stable(current_task);
      38:	mov    %gs:0x0,%rcx
lookup_slow():
/home/lookfiresu/Desktop/my_linux-3.13.0/include/linux/dcache.h:359
		dentry->d_lockref.count++;
	return dentry;
}

static inline struct dentry *dget(struct dentry *dentry)
{
      41:	mov    %rsp,%rbp
/home/lookfiresu/Desktop/my_linux-3.13.0/include/linux/dcache.h:360
  MY_PRINTK(get_current()->comm);
      44:	add    $0x4a8,%rcx
/home/lookfiresu/Desktop/my_linux-3.13.0/include/linux/dcache.h:359
		dentry->d_lockref.count++;
	return dentry;
}

static inline struct dentry *dget(struct dentry *dentry)
{
      4b:	push   %rbx
      4c:	mov    %rdi,%rbx
      4f:	jmp    5d <dget+0x2d>
      51:	nopl   0x0(%rax)
my_strcmp():
/home/lookfiresu/Desktop/my_linux-3.13.0/include/linux/interactive_design.h:15
	while (1) {
		c1 = *cs++;
		c2 = *ct++;
		if (c1 != c2)
			return c1 < c2 ? -1 : 1;
		if (!c1)
      58:	test   %sil,%sil
      5b:	je     c0 <dget+0x90>
/home/lookfiresu/Desktop/my_linux-3.13.0/include/linux/interactive_design.h:11

static int my_strcmp(const char *cs, const char *ct) {
	unsigned char c1, c2;

	while (1) {
		c1 = *cs++;
      5d:	add    $0x1,%rcx
      61:	movzbl -0x1(%rcx),%esi
/home/lookfiresu/Desktop/my_linux-3.13.0/include/linux/interactive_design.h:12
		c2 = *ct++;
      65:	add    $0x1,%rdx
/home/lookfiresu/Desktop/my_linux-3.13.0/include/linux/interactive_design.h:13
		if (c1 != c2)
      69:	cmp    -0x1(%rdx),%sil
      6d:	je     58 <dget+0x28>
get_current():
/home/lookfiresu/Desktop/my_linux-3.13.0/arch/x86/include/asm/current.h:19
      6f:	mov    %gs:0x0,%rcx
lookup_slow():
/home/lookfiresu/Desktop/my_linux-3.13.0/include/linux/dcache.h:360
  MY_PRINTK(get_current()->comm);
      78:	mov    $0x0,%rdx
      7f:	add    $0x4a8,%rcx
      86:	jmp    95 <dget+0x65>
      88:	nopl   0x0(%rax,%rax,1)
my_strcmp():
/home/lookfiresu/Desktop/my_linux-3.13.0/include/linux/interactive_design.h:15
			return c1 < c2 ? -1 : 1;
		if (!c1)
      90:	test   %sil,%sil
      93:	je     c0 <dget+0x90>
/home/lookfiresu/Desktop/my_linux-3.13.0/include/linux/interactive_design.h:11

static int my_strcmp(const char *cs, const char *ct) {
	unsigned char c1, c2;

	while (1) {
		c1 = *cs++;
      95:	add    $0x1,%rcx
      99:	movzbl -0x1(%rcx),%esi
/home/lookfiresu/Desktop/my_linux-3.13.0/include/linux/interactive_design.h:12
		c2 = *ct++;
      9d:	add    $0x1,%rdx
/home/lookfiresu/Desktop/my_linux-3.13.0/include/linux/interactive_design.h:13
		if (c1 != c2)
      a1:	cmp    -0x1(%rdx),%sil
      a5:	je     90 <dget+0x60>
lookup_slow():
/home/lookfiresu/Desktop/my_linux-3.13.0/include/linux/dcache.h:361
	if (dentry)
      a7:	test   %rbx,%rbx
      aa:	je     b5 <dget+0x85>
/home/lookfiresu/Desktop/my_linux-3.13.0/include/linux/dcache.h:362
		lockref_get(&dentry->d_lockref);
      ac:	lea    0x58(%rbx),%rdi
walk_component():
      b0:	callq  b5 <dget+0x85>
vfs_path_lookup():
/home/lookfiresu/Desktop/my_linux-3.13.0/include/linux/dcache.h:364
	return dentry;
}
      b5:	mov    %rbx,%rax
      b8:	pop    %rbx
      b9:	pop    %rbp
      ba:	retq   
      bb:	nopl   0x0(%rax,%rax,1)
get_current():
/home/lookfiresu/Desktop/my_linux-3.13.0/arch/x86/include/asm/current.h:19
      c0:	mov    %gs:0x0,%rdx
dget():
/home/lookfiresu/Desktop/my_linux-3.13.0/include/linux/dcache.h:360
	return dentry;
}

static inline struct dentry *dget(struct dentry *dentry)
{
  MY_PRINTK(get_current()->comm);
      c9:	mov    $0x0,%rsi
      d0:	add    $0x4a8,%rdx
      d7:	mov    $0x0,%rdi
      de:	xor    %eax,%eax
      e0:	callq  e5 <dget+0xb5>
      e5:	jmp    a7 <dget+0x77>
      e7:	nopw   0x0(%rax,%rax,1)

00000000000000f0 <lookup_real>:
lookup_real():
/home/lookfiresu/Desktop/my_linux-3.13.0/fs/namei.c:1331
	struct dentry *old;

	/* Don't create child dentry for a dead directory. */
	if (unlikely(IS_DEADDIR(dir))) {
		dput(dentry);
		return ERR_PTR(-ENOENT);
      f0:	callq  f5 <lookup_real+0x5>
      f5:	push   %rbp
/home/lookfiresu/Desktop/my_linux-3.13.0/fs/namei.c:1332
	}
      f6:	mov    $0x0,%rcx
get_current():
/home/lookfiresu/Desktop/my_linux-3.13.0/arch/x86/include/asm/current.h:19
      fd:	mov    %gs:0x0,%r8
lookup_real():
/home/lookfiresu/Desktop/my_linux-3.13.0/fs/namei.c:1331
	struct dentry *old;

	/* Don't create child dentry for a dead directory. */
	if (unlikely(IS_DEADDIR(dir))) {
		dput(dentry);
		return ERR_PTR(-ENOENT);
     106:	mov    %rsp,%rbp
     109:	push   %r13
     10b:	mov    %edx,%r13d
/home/lookfiresu/Desktop/my_linux-3.13.0/fs/namei.c:1332
	}
     10e:	add    $0x4a8,%r8
/home/lookfiresu/Desktop/my_linux-3.13.0/fs/namei.c:1331
	struct dentry *old;

	/* Don't create child dentry for a dead directory. */
	if (unlikely(IS_DEADDIR(dir))) {
		dput(dentry);
		return ERR_PTR(-ENOENT);
     115:	push   %r12
     117:	mov    %rsi,%r12
     11a:	push   %rbx
     11b:	mov    %rdi,%rbx
     11e:	sub    $0x8,%rsp
     122:	jmp    12d <lookup_real+0x3d>
     124:	nopl   0x0(%rax)
my_strcmp():
/home/lookfiresu/Desktop/my_linux-3.13.0/include/linux/interactive_design.h:15
			return c1 < c2 ? -1 : 1;
		if (!c1)
     128:	test   %r9b,%r9b
     12b:	je     1a0 <lookup_real+0xb0>
/home/lookfiresu/Desktop/my_linux-3.13.0/include/linux/interactive_design.h:11

static int my_strcmp(const char *cs, const char *ct) {
	unsigned char c1, c2;

	while (1) {
		c1 = *cs++;
     12d:	add    $0x1,%r8
     131:	movzbl -0x1(%r8),%r9d
/home/lookfiresu/Desktop/my_linux-3.13.0/include/linux/interactive_design.h:12
		c2 = *ct++;
     136:	add    $0x1,%rcx
/home/lookfiresu/Desktop/my_linux-3.13.0/include/linux/interactive_design.h:13
		if (c1 != c2)
     13a:	cmp    -0x1(%rcx),%r9b
     13e:	je     128 <lookup_real+0x38>
get_current():
/home/lookfiresu/Desktop/my_linux-3.13.0/arch/x86/include/asm/current.h:19
     140:	mov    %gs:0x0,%r8
lookup_real():
/home/lookfiresu/Desktop/my_linux-3.13.0/fs/namei.c:1332
	}
     149:	mov    $0x0,%rcx
     150:	add    $0x4a8,%r8
     157:	jmp    165 <lookup_real+0x75>
     159:	nopl   0x0(%rax)
my_strcmp():
/home/lookfiresu/Desktop/my_linux-3.13.0/include/linux/interactive_design.h:15
			return c1 < c2 ? -1 : 1;
		if (!c1)
     160:	test   %r9b,%r9b
     163:	je     1a0 <lookup_real+0xb0>
/home/lookfiresu/Desktop/my_linux-3.13.0/include/linux/interactive_design.h:11

static int my_strcmp(const char *cs, const char *ct) {
	unsigned char c1, c2;

	while (1) {
		c1 = *cs++;
     165:	add    $0x1,%r8
     169:	movzbl -0x1(%r8),%r9d
/home/lookfiresu/Desktop/my_linux-3.13.0/include/linux/interactive_design.h:12
		c2 = *ct++;
     16e:	add    $0x1,%rcx
/home/lookfiresu/Desktop/my_linux-3.13.0/include/linux/interactive_design.h:13
		if (c1 != c2)
     172:	cmp    -0x1(%rcx),%r9b
     176:	je     160 <lookup_real+0x70>
lookup_real():
/home/lookfiresu/Desktop/my_linux-3.13.0/fs/namei.c:1337

	old = dir->i_op->lookup(dir, dentry, flags);
	if (unlikely(old)) {
		dput(dentry);
		dentry = old;
     178:	testb  $0x10,0xc(%rbx)
     17c:	jne    1d9 <lookup_real+0xe9>
/home/lookfiresu/Desktop/my_linux-3.13.0/fs/namei.c:1342
	}
	return dentry;
}

static struct dentry *__lookup_hash(struct qstr *name, struct dentry *base, unsigned int flags)
     17e:	mov    0x20(%rbx),%rax
     182:	mov    %r13d,%edx
     185:	mov    %r12,%rsi
     188:	mov    %rbx,%rdi
     18b:	callq  *(%rax)
/home/lookfiresu/Desktop/my_linux-3.13.0/fs/namei.c:1343
{
     18d:	test   %rax,%rax
     190:	jne    1c7 <lookup_real+0xd7>
     192:	mov    %r12,%rax
/home/lookfiresu/Desktop/my_linux-3.13.0/fs/namei.c:1348
	bool need_lookup;
	struct dentry *dentry;

	dentry = lookup_dcache(name, base, flags, &need_lookup);
	if (!need_lookup)
     195:	add    $0x8,%rsp
     199:	pop    %rbx
     19a:	pop    %r12
     19c:	pop    %r13
     19e:	pop    %rbp
     19f:	retq   
get_current():
/home/lookfiresu/Desktop/my_linux-3.13.0/arch/x86/include/asm/current.h:19
     1a0:	mov    %gs:0x0,%rdx
lookup_real():
/home/lookfiresu/Desktop/my_linux-3.13.0/fs/namei.c:1332

	/* Don't create child dentry for a dead directory. */
	if (unlikely(IS_DEADDIR(dir))) {
		dput(dentry);
		return ERR_PTR(-ENOENT);
	}
     1a9:	mov    $0x0,%rsi
     1b0:	add    $0x4a8,%rdx
     1b7:	mov    $0x0,%rdi
     1be:	xor    %eax,%eax
     1c0:	callq  1c5 <lookup_real+0xd5>
     1c5:	jmp    178 <lookup_real+0x88>
/home/lookfiresu/Desktop/my_linux-3.13.0/fs/namei.c:1344
	return dentry;
}

static struct dentry *__lookup_hash(struct qstr *name, struct dentry *base, unsigned int flags)
{
	bool need_lookup;
     1c7:	mov    %r12,%rdi
     1ca:	mov    %rax,-0x20(%rbp)
     1ce:	callq  1d3 <lookup_real+0xe3>
     1d3:	mov    -0x20(%rbp),%rax
     1d7:	jmp    195 <lookup_real+0xa5>
/home/lookfiresu/Desktop/my_linux-3.13.0/fs/namei.c:1338

	old = dir->i_op->lookup(dir, dentry, flags);
	if (unlikely(old)) {
		dput(dentry);
		dentry = old;
	}
     1d9:	mov    %r12,%rdi
     1dc:	callq  1e1 <lookup_real+0xf1>
/home/lookfiresu/Desktop/my_linux-3.13.0/fs/namei.c:1339
	return dentry;
     1e1:	mov    $0xfffffffffffffffe,%rax
     1e8:	jmp    195 <lookup_real+0xa5>
     1ea:	nopw   0x0(%rax,%rax,1)

00000000000001f0 <path_put>:
path_put():
/home/lookfiresu/Desktop/my_linux-3.13.0/fs/namei.c:487
 * Given a path decrement the reference count to the dentry and the vfsmount.
 */
void path_put(const struct path *path)
{
	dput(path->dentry);
	mntput(path->mnt);
     1f0:	callq  1f5 <path_put+0x5>
     1f5:	push   %rbp
     1f6:	mov    %rsp,%rbp
     1f9:	push   %rbx
     1fa:	mov    %rdi,%rbx
/home/lookfiresu/Desktop/my_linux-3.13.0/fs/namei.c:488
}
     1fd:	mov    0x8(%rdi),%rdi
     201:	callq  206 <path_put+0x16>
/home/lookfiresu/Desktop/my_linux-3.13.0/fs/namei.c:489
EXPORT_SYMBOL(path_put);
     206:	mov    (%rbx),%rdi
     209:	callq  20e <path_put+0x1e>
/home/lookfiresu/Desktop/my_linux-3.13.0/fs/namei.c:490

     20e:	pop    %rbx
     20f:	pop    %rbp
     210:	retq   
     211:	data32 data32 data32 data32 data32 nopw %cs:0x0(%rax,%rax,1)

0000000000000220 <put_link>:
put_link():
/home/lookfiresu/Desktop/my_linux-3.13.0/fs/namei.c:704

static inline void put_link(struct nameidata *nd, struct path *link, void *cookie)
{
	struct inode *inode = link->dentry->d_inode;
	if (inode->i_op->put_link)
		inode->i_op->put_link(link->dentry, nd, cookie);
     220:	push   %rbp
     221:	mov    %rdi,%r8
     224:	mov    %rsp,%rbp
     227:	push   %rbx
/home/lookfiresu/Desktop/my_linux-3.13.0/fs/namei.c:705
	path_put(link);
     228:	mov    0x8(%rsi),%rax
/home/lookfiresu/Desktop/my_linux-3.13.0/fs/namei.c:704

static inline void put_link(struct nameidata *nd, struct path *link, void *cookie)
{
	struct inode *inode = link->dentry->d_inode;
	if (inode->i_op->put_link)
		inode->i_op->put_link(link->dentry, nd, cookie);
     22c:	mov    %rsi,%rbx
/home/lookfiresu/Desktop/my_linux-3.13.0/fs/namei.c:706
	path_put(link);
}
     22f:	mov    0x30(%rax),%rcx
     233:	mov    %rax,%rdi
     236:	mov    0x20(%rcx),%rcx
     23a:	mov    0x28(%rcx),%rcx
     23e:	test   %rcx,%rcx
     241:	je     24c <put_link+0x2c>
/home/lookfiresu/Desktop/my_linux-3.13.0/fs/namei.c:707

     243:	mov    %r8,%rsi
     246:	callq  *%rcx
     248:	mov    0x8(%rbx),%rdi
path_put():
/home/lookfiresu/Desktop/my_linux-3.13.0/fs/namei.c:488
 */
void path_put(const struct path *path)
{
	dput(path->dentry);
	mntput(path->mnt);
}
     24c:	callq  251 <put_link+0x31>
/home/lookfiresu/Desktop/my_linux-3.13.0/fs/namei.c:489
EXPORT_SYMBOL(path_put);
     251:	mov    (%rbx),%rdi
     254:	callq  259 <put_link+0x39>
put_link():
/home/lookfiresu/Desktop/my_linux-3.13.0/fs/namei.c:709
		inode->i_op->put_link(link->dentry, nd, cookie);
	path_put(link);
}

int sysctl_protected_symlinks __read_mostly = 0;
int sysctl_protected_hardlinks __read_mostly = 0;
     259:	pop    %rbx
     25a:	pop    %rbp
     25b:	retq   
     25c:	nopl   0x0(%rax)

0000000000000260 <follow_up>:
follow_up():
/home/lookfiresu/Desktop/my_linux-3.13.0/fs/namei.c:919
int follow_up(struct path *path)
{
	struct mount *mnt = real_mount(path->mnt);
	struct mount *parent;
	struct dentry *mountpoint;

     260:	callq  265 <follow_up+0x5>
     265:	push   %rbp
     266:	mov    %rsp,%rbp
     269:	push   %r13
     26b:	push   %r12
     26d:	push   %rbx
/home/lookfiresu/Desktop/my_linux-3.13.0/fs/namei.c:920
	read_seqlock_excl(&mount_lock);
     26e:	mov    (%rdi),%r12
/home/lookfiresu/Desktop/my_linux-3.13.0/fs/namei.c:919
int follow_up(struct path *path)
{
	struct mount *mnt = real_mount(path->mnt);
	struct mount *parent;
	struct dentry *mountpoint;

     271:	mov    %rdi,%rbx
spin_lock():
/home/lookfiresu/Desktop/my_linux-3.13.0/include/linux/spinlock.h:293
	raw_spin_lock_init(&(_lock)->rlock);		\
} while (0)

static inline void spin_lock(spinlock_t *lock)
{
	raw_spin_lock(&lock->rlock);
     274:	mov    $0x0,%rdi
     27b:	callq  280 <follow_up+0x20>
follow_up():
/home/lookfiresu/Desktop/my_linux-3.13.0/fs/namei.c:925
	read_seqlock_excl(&mount_lock);
	parent = mnt->mnt_parent;
	if (parent == mnt) {
		read_sequnlock_excl(&mount_lock);
		return 0;
	}
     280:	mov    -0x10(%r12),%rdi
/home/lookfiresu/Desktop/my_linux-3.13.0/fs/namei.c:920
{
	struct mount *mnt = real_mount(path->mnt);
	struct mount *parent;
	struct dentry *mountpoint;

	read_seqlock_excl(&mount_lock);
     285:	lea    -0x20(%r12),%rax
/home/lookfiresu/Desktop/my_linux-3.13.0/fs/namei.c:926
	parent = mnt->mnt_parent;
	if (parent == mnt) {
		read_sequnlock_excl(&mount_lock);
		return 0;
	}
	mntget(&parent->mnt);
     28a:	cmp    %rax,%rdi
     28d:	je     2e8 <follow_up+0x88>
/home/lookfiresu/Desktop/my_linux-3.13.0/fs/namei.c:930
	// mountpoint = dget(mnt->mnt_mountpoint);
	mountpoint = msg_dget(mnt->mnt_mountpoint, msqid_from_fs_to_kernel, msqid_from_kernel_to_fs);
	read_sequnlock_excl(&mount_lock);
	dput(path->dentry);
     28f:	lea    0x20(%rdi),%r13
     293:	mov    %r13,%rdi
     296:	callq  29b <follow_up+0x3b>
/home/lookfiresu/Desktop/my_linux-3.13.0/fs/namei.c:932
	path->dentry = mountpoint;
	mntput(path->mnt);
     29b:	mov    0x0(%rip),%edx        # 2a1 <follow_up+0x41>
     2a1:	mov    0x0(%rip),%esi        # 2a7 <follow_up+0x47>
     2a7:	mov    -0x8(%r12),%rdi
     2ac:	callq  2b1 <follow_up+0x51>
spin_unlock():
/home/lookfiresu/Desktop/my_linux-3.13.0/include/linux/spinlock.h:333
	raw_spin_lock_irqsave_nested(spinlock_check(lock), flags, subclass); \
} while (0)

static inline void spin_unlock(spinlock_t *lock)
{
	raw_spin_unlock(&lock->rlock);
     2b1:	mov    $0x0,%rdi
follow_up():
/home/lookfiresu/Desktop/my_linux-3.13.0/fs/namei.c:932
     2b8:	mov    %rax,%r12
read_sequnlock_excl():
/home/lookfiresu/Desktop/my_linux-3.13.0/include/linux/spinlock.h:333
     2bb:	callq  2c0 <follow_up+0x60>
follow_up():
/home/lookfiresu/Desktop/my_linux-3.13.0/fs/namei.c:934
	path->mnt = &parent->mnt;
	return 1;
     2c0:	mov    0x8(%rbx),%rdi
     2c4:	callq  2c9 <follow_up+0x69>
/home/lookfiresu/Desktop/my_linux-3.13.0/fs/namei.c:936
}

     2c9:	mov    (%rbx),%rdi
/home/lookfiresu/Desktop/my_linux-3.13.0/fs/namei.c:935
	dput(path->dentry);
	path->dentry = mountpoint;
	mntput(path->mnt);
	path->mnt = &parent->mnt;
	return 1;
}
     2cc:	mov    %r12,0x8(%rbx)
/home/lookfiresu/Desktop/my_linux-3.13.0/fs/namei.c:936

     2d0:	callq  2d5 <follow_up+0x75>
/home/lookfiresu/Desktop/my_linux-3.13.0/fs/namei.c:937
/*
     2d5:	mov    %r13,(%rbx)
/home/lookfiresu/Desktop/my_linux-3.13.0/fs/namei.c:938
 * Perform an automount
     2d8:	mov    $0x1,%eax
/home/lookfiresu/Desktop/my_linux-3.13.0/fs/namei.c:939
 * - return -EISDIR to tell follow_managed() to stop and return the path we
     2dd:	pop    %rbx
     2de:	pop    %r12
     2e0:	pop    %r13
     2e2:	pop    %rbp
     2e3:	retq   
     2e4:	nopl   0x0(%rax)
spin_unlock():
/home/lookfiresu/Desktop/my_linux-3.13.0/include/linux/spinlock.h:333
     2e8:	mov    $0x0,%rdi
     2ef:	callq  2f4 <follow_up+0x94>
follow_up():
/home/lookfiresu/Desktop/my_linux-3.13.0/fs/namei.c:939
     2f4:	pop    %rbx
     2f5:	pop    %r12
     2f7:	pop    %r13
/home/lookfiresu/Desktop/my_linux-3.13.0/fs/namei.c:928
		read_sequnlock_excl(&mount_lock);
		return 0;
	}
	mntget(&parent->mnt);
	// mountpoint = dget(mnt->mnt_mountpoint);
	mountpoint = msg_dget(mnt->mnt_mountpoint, msqid_from_fs_to_kernel, msqid_from_kernel_to_fs);
     2f9:	xor    %eax,%eax
/home/lookfiresu/Desktop/my_linux-3.13.0/fs/namei.c:939
	return 1;
}

/*
 * Perform an automount
 * - return -EISDIR to tell follow_managed() to stop and return the path we
     2fb:	pop    %rbp
     2fc:	retq   
     2fd:	nopl   (%rax)

0000000000000300 <follow_down>:
follow_down():
/home/lookfiresu/Desktop/my_linux-3.13.0/fs/namei.c:1200
	unsigned managed;
	int ret;

	while (managed = ACCESS_ONCE(path->dentry->d_flags),
	       unlikely(managed & DCACHE_MANAGED_DENTRY)) {
		/* Allow the filesystem to manage the transit without i_mutex
     300:	callq  305 <follow_down+0x5>
     305:	push   %rbp
     306:	mov    %rsp,%rbp
     309:	push   %r12
     30b:	push   %rbx
/home/lookfiresu/Desktop/my_linux-3.13.0/fs/namei.c:1204
		 * being held.
		 *
		 * We indicate to the filesystem if someone is trying to mount
		 * something here.  This gives autofs the chance to deny anyone
     30c:	mov    0x8(%rdi),%rax
/home/lookfiresu/Desktop/my_linux-3.13.0/fs/namei.c:1200
	unsigned managed;
	int ret;

	while (managed = ACCESS_ONCE(path->dentry->d_flags),
	       unlikely(managed & DCACHE_MANAGED_DENTRY)) {
		/* Allow the filesystem to manage the transit without i_mutex
     310:	mov    %rdi,%rbx
/home/lookfiresu/Desktop/my_linux-3.13.0/fs/namei.c:1204
		 * being held.
		 *
		 * We indicate to the filesystem if someone is trying to mount
		 * something here.  This gives autofs the chance to deny anyone
     313:	mov    (%rax),%r12d
     316:	test   $0x70000,%r12d
     31d:	jne    326 <follow_down+0x26>
/home/lookfiresu/Desktop/my_linux-3.13.0/fs/namei.c:1240
}

/*
 * Skip to top of mountpoint pile in refwalk mode for follow_dotdot()
 */
static void follow_mount(struct path *path)
     31f:	xor    %eax,%eax
/home/lookfiresu/Desktop/my_linux-3.13.0/fs/namei.c:1241
{
     321:	pop    %rbx
     322:	pop    %r12
     324:	pop    %rbp
     325:	retq   
/home/lookfiresu/Desktop/my_linux-3.13.0/fs/namei.c:1216
			BUG_ON(!path->dentry->d_op);
			BUG_ON(!path->dentry->d_op->d_manage);
			ret = path->dentry->d_op->d_manage(
				path->dentry, false);
			if (ret < 0)
				return ret == -EISDIR ? 0 : ret;
     326:	test   $0x40000,%r12d
     32d:	je     34e <follow_down+0x4e>
/home/lookfiresu/Desktop/my_linux-3.13.0/fs/namei.c:1217
		}
     32f:	mov    0x60(%rax),%rdx
     333:	test   %rdx,%rdx
     336:	je     3a2 <follow_down+0xa2>
/home/lookfiresu/Desktop/my_linux-3.13.0/fs/namei.c:1218

     338:	mov    0x50(%rdx),%rdx
     33c:	test   %rdx,%rdx
     33f:	je     3a0 <follow_down+0xa0>
/home/lookfiresu/Desktop/my_linux-3.13.0/fs/namei.c:1219
		/* Transit to a mounted filesystem. */
     341:	xor    %esi,%esi
     343:	mov    %rax,%rdi
     346:	callq  *%rdx
/home/lookfiresu/Desktop/my_linux-3.13.0/fs/namei.c:1221
		if (managed & DCACHE_MOUNTED) {
			struct vfsmount *mounted = lookup_mnt(path);
     348:	test   %eax,%eax
/home/lookfiresu/Desktop/my_linux-3.13.0/fs/namei.c:1219
				path->dentry, false);
			if (ret < 0)
				return ret == -EISDIR ? 0 : ret;
		}

		/* Transit to a mounted filesystem. */
     34a:	mov    %eax,%edx
/home/lookfiresu/Desktop/my_linux-3.13.0/fs/namei.c:1221
		if (managed & DCACHE_MOUNTED) {
			struct vfsmount *mounted = lookup_mnt(path);
     34c:	js     396 <follow_down+0x96>
/home/lookfiresu/Desktop/my_linux-3.13.0/fs/namei.c:1226
			if (!mounted)
				break;
			dput(path->dentry);
			mntput(path->mnt);
			path->mnt = mounted;
     34e:	and    $0x10000,%r12d
     355:	je     31f <follow_down+0x1f>
/home/lookfiresu/Desktop/my_linux-3.13.0/fs/namei.c:1227
			path->dentry = dget(mounted->mnt_root);
     357:	mov    %rbx,%rdi
     35a:	callq  35f <follow_down+0x5f>
/home/lookfiresu/Desktop/my_linux-3.13.0/fs/namei.c:1228
			continue;
     35f:	test   %rax,%rax
/home/lookfiresu/Desktop/my_linux-3.13.0/fs/namei.c:1227
			if (!mounted)
				break;
			dput(path->dentry);
			mntput(path->mnt);
			path->mnt = mounted;
			path->dentry = dget(mounted->mnt_root);
     362:	mov    %rax,%r12
/home/lookfiresu/Desktop/my_linux-3.13.0/fs/namei.c:1228
			continue;
     365:	je     31f <follow_down+0x1f>
/home/lookfiresu/Desktop/my_linux-3.13.0/fs/namei.c:1230
		}

     367:	mov    0x8(%rbx),%rdi
     36b:	callq  370 <follow_down+0x70>
/home/lookfiresu/Desktop/my_linux-3.13.0/fs/namei.c:1231
		/* Don't handle automount points here */
     370:	mov    (%rbx),%rdi
     373:	callq  378 <follow_down+0x78>
/home/lookfiresu/Desktop/my_linux-3.13.0/fs/namei.c:1232
		break;
     378:	mov    %r12,(%rbx)
/home/lookfiresu/Desktop/my_linux-3.13.0/fs/namei.c:1233
	}
     37b:	mov    (%r12),%rdi
     37f:	callq  30 <dget>
     384:	mov    %rax,0x8(%rbx)
/home/lookfiresu/Desktop/my_linux-3.13.0/fs/namei.c:1204
	       unlikely(managed & DCACHE_MANAGED_DENTRY)) {
		/* Allow the filesystem to manage the transit without i_mutex
		 * being held.
		 *
		 * We indicate to the filesystem if someone is trying to mount
		 * something here.  This gives autofs the chance to deny anyone
     388:	mov    (%rax),%r12d
     38b:	test   $0x70000,%r12d
     392:	je     31f <follow_down+0x1f>
     394:	jmp    326 <follow_down+0x26>
/home/lookfiresu/Desktop/my_linux-3.13.0/fs/namei.c:1222
		}

		/* Transit to a mounted filesystem. */
		if (managed & DCACHE_MOUNTED) {
			struct vfsmount *mounted = lookup_mnt(path);
			if (!mounted)
     396:	xor    %eax,%eax
     398:	cmp    $0xffffffeb,%edx
     39b:	cmovne %edx,%eax
     39e:	jmp    321 <follow_down+0x21>
/home/lookfiresu/Desktop/my_linux-3.13.0/fs/namei.c:1218 (discriminator 1)
			ret = path->dentry->d_op->d_manage(
				path->dentry, false);
			if (ret < 0)
				return ret == -EISDIR ? 0 : ret;
		}

     3a0:	ud2    
/home/lookfiresu/Desktop/my_linux-3.13.0/fs/namei.c:1217 (discriminator 1)
			BUG_ON(!path->dentry->d_op->d_manage);
			ret = path->dentry->d_op->d_manage(
				path->dentry, false);
			if (ret < 0)
				return ret == -EISDIR ? 0 : ret;
		}
     3a2:	ud2    
     3a4:	data32 data32 nopw %cs:0x0(%rax,%rax,1)

00000000000003b0 <unlock_rename>:
unlock_rename():
/home/lookfiresu/Desktop/my_linux-3.13.0/fs/namei.c:2501
	if (error)
		return error;
	error = dir->i_op->create(dir, dentry, mode, want_excl);
	if (!error)
		fsnotify_create(dir, dentry);
	return error;
     3b0:	callq  3b5 <unlock_rename+0x5>
     3b5:	push   %rbp
     3b6:	mov    %rsp,%rbp
     3b9:	push   %r12
     3bb:	mov    %rsi,%r12
     3be:	push   %rbx
/home/lookfiresu/Desktop/my_linux-3.13.0/fs/namei.c:2502
}
     3bf:	mov    0x30(%rdi),%rax
/home/lookfiresu/Desktop/my_linux-3.13.0/fs/namei.c:2501
	if (error)
		return error;
	error = dir->i_op->create(dir, dentry, mode, want_excl);
	if (!error)
		fsnotify_create(dir, dentry);
	return error;
     3c3:	mov    %rdi,%rbx
/home/lookfiresu/Desktop/my_linux-3.13.0/fs/namei.c:2502
}
     3c6:	lea    0xa8(%rax),%rdi
     3cd:	callq  3d2 <unlock_rename+0x22>
/home/lookfiresu/Desktop/my_linux-3.13.0/fs/namei.c:2503

     3d2:	cmp    %r12,%rbx
     3d5:	je     3fc <unlock_rename+0x4c>
/home/lookfiresu/Desktop/my_linux-3.13.0/fs/namei.c:2504
static int may_open(struct path *path, int acc_mode, int flag)
     3d7:	mov    0x30(%r12),%rdi
     3dc:	add    $0xa8,%rdi
     3e3:	callq  3e8 <unlock_rename+0x38>
/home/lookfiresu/Desktop/my_linux-3.13.0/fs/namei.c:2505
{
     3e8:	mov    0x30(%rbx),%rax
     3ec:	mov    0x28(%rax),%rdi
     3f0:	add    $0x310,%rdi
     3f7:	callq  3fc <unlock_rename+0x4c>
/home/lookfiresu/Desktop/my_linux-3.13.0/fs/namei.c:2507
	struct dentry *dentry = path->dentry;
	struct inode *inode = dentry->d_inode;
     3fc:	pop    %rbx
     3fd:	pop    %r12
     3ff:	pop    %rbp
     400:	retq   
     401:	data32 data32 data32 data32 data32 nopw %cs:0x0(%rax,%rax,1)

0000000000000410 <complete_walk>:
complete_walk():
/home/lookfiresu/Desktop/my_linux-3.13.0/fs/namei.c:605
 * need to drop nd->path.
 */
static int complete_walk(struct nameidata *nd)
{
	struct dentry *dentry = nd->path.dentry;
	int status;
     410:	callq  415 <complete_walk+0x5>
     415:	push   %rbp
     416:	mov    %rsp,%rbp
     419:	push   %r12
     41b:	push   %rbx
/home/lookfiresu/Desktop/my_linux-3.13.0/fs/namei.c:609

	if (nd->flags & LOOKUP_RCU) {
		nd->flags &= ~LOOKUP_RCU;
		if (!(nd->flags & LOOKUP_ROOT))
     41c:	mov    0x38(%rdi),%esi
/home/lookfiresu/Desktop/my_linux-3.13.0/fs/namei.c:605
 * need to drop nd->path.
 */
static int complete_walk(struct nameidata *nd)
{
	struct dentry *dentry = nd->path.dentry;
	int status;
     41f:	mov    %rdi,%rbx
/home/lookfiresu/Desktop/my_linux-3.13.0/fs/namei.c:606

     422:	mov    0x8(%rdi),%r12
/home/lookfiresu/Desktop/my_linux-3.13.0/fs/namei.c:609
	if (nd->flags & LOOKUP_RCU) {
		nd->flags &= ~LOOKUP_RCU;
		if (!(nd->flags & LOOKUP_ROOT))
     426:	test   $0x40,%sil
     42a:	je     46e <complete_walk+0x5e>
/home/lookfiresu/Desktop/my_linux-3.13.0/fs/namei.c:610
			nd->root.mnt = NULL;
     42c:	mov    %esi,%eax
     42e:	and    $0xffffffbf,%eax
/home/lookfiresu/Desktop/my_linux-3.13.0/fs/namei.c:611

     431:	and    $0x2000,%esi
/home/lookfiresu/Desktop/my_linux-3.13.0/fs/namei.c:610
	int status;

	if (nd->flags & LOOKUP_RCU) {
		nd->flags &= ~LOOKUP_RCU;
		if (!(nd->flags & LOOKUP_ROOT))
			nd->root.mnt = NULL;
     437:	mov    %eax,0x38(%rdi)
/home/lookfiresu/Desktop/my_linux-3.13.0/fs/namei.c:611

     43a:	jne    444 <complete_walk+0x34>
/home/lookfiresu/Desktop/my_linux-3.13.0/fs/namei.c:612
		if (!legitimize_mnt(nd->path.mnt, nd->m_seq)) {
     43c:	movq   $0x0,0x20(%rdi)
/home/lookfiresu/Desktop/my_linux-3.13.0/fs/namei.c:614
			rcu_read_unlock();
			return -ECHILD;
     444:	mov    0x40(%rbx),%esi
     447:	mov    (%rbx),%rdi
     44a:	callq  44f <complete_walk+0x3f>
     44f:	test   %al,%al
     451:	je     480 <complete_walk+0x70>
/home/lookfiresu/Desktop/my_linux-3.13.0/fs/namei.c:618
		}
		if (unlikely(!lockref_get_not_dead(&dentry->d_lockref))) {
			rcu_read_unlock();
			mntput(nd->path.mnt);
     453:	lea    0x58(%r12),%rdi
     458:	callq  45d <complete_walk+0x4d>
     45d:	test   %eax,%eax
     45f:	je     4c3 <complete_walk+0xb3>
/home/lookfiresu/Desktop/my_linux-3.13.0/fs/namei.c:623
			return -ECHILD;
		}
		if (read_seqcount_retry(&dentry->d_seq, nd->seq)) {
			rcu_read_unlock();
			dput(dentry);
     461:	mov    0x3c(%rbx),%eax
     464:	cmp    0x4(%r12),%eax
     469:	jne    4d2 <complete_walk+0xc2>
__rcu_read_unlock():
/home/lookfiresu/Desktop/my_linux-3.13.0/include/linux/rcupdate.h:203
	preempt_disable();
}

static inline void __rcu_read_unlock(void)
{
	preempt_enable();
     46b:	mov    0x38(%rbx),%esi
complete_walk():
/home/lookfiresu/Desktop/my_linux-3.13.0/fs/namei.c:632
		rcu_read_unlock();
	}

	if (likely(!(nd->flags & LOOKUP_JUMPED)))
		return 0;

     46e:	test   $0x1000,%esi
     474:	jne    487 <complete_walk+0x77>
/home/lookfiresu/Desktop/my_linux-3.13.0/fs/namei.c:633
	if (likely(!(dentry->d_flags & DCACHE_OP_WEAK_REVALIDATE)))
     476:	xor    %eax,%eax
/home/lookfiresu/Desktop/my_linux-3.13.0/fs/namei.c:647

	path_put(&nd->path);
	return status;
}

static __always_inline void set_root(struct nameidata *nd)
     478:	pop    %rbx
     479:	pop    %r12
     47b:	pop    %rbp
     47c:	retq   
     47d:	nopl   (%rax)
/home/lookfiresu/Desktop/my_linux-3.13.0/fs/namei.c:616

		if (!legitimize_mnt(nd->path.mnt, nd->m_seq)) {
			rcu_read_unlock();
			return -ECHILD;
		}
		if (unlikely(!lockref_get_not_dead(&dentry->d_lockref))) {
     480:	mov    $0xfffffff6,%eax
     485:	jmp    478 <complete_walk+0x68>
/home/lookfiresu/Desktop/my_linux-3.13.0/fs/namei.c:635
	if (likely(!(nd->flags & LOOKUP_JUMPED)))
		return 0;

	if (likely(!(dentry->d_flags & DCACHE_OP_WEAK_REVALIDATE)))
		return 0;

     487:	testl  $0x800,(%r12)
     48f:	je     476 <complete_walk+0x66>
/home/lookfiresu/Desktop/my_linux-3.13.0/fs/namei.c:638
	status = dentry->d_op->d_weak_revalidate(dentry, nd->flags);
	if (status > 0)
		return 0;
     491:	mov    0x60(%r12),%rax
     496:	mov    %r12,%rdi
     499:	callq  *0x8(%rax)
/home/lookfiresu/Desktop/my_linux-3.13.0/fs/namei.c:639

     49c:	cmp    $0x0,%eax
/home/lookfiresu/Desktop/my_linux-3.13.0/fs/namei.c:638
	if (likely(!(dentry->d_flags & DCACHE_OP_WEAK_REVALIDATE)))
		return 0;

	status = dentry->d_op->d_weak_revalidate(dentry, nd->flags);
	if (status > 0)
		return 0;
     49f:	mov    %eax,%r12d
/home/lookfiresu/Desktop/my_linux-3.13.0/fs/namei.c:639

     4a2:	jg     476 <complete_walk+0x66>
path_put():
/home/lookfiresu/Desktop/my_linux-3.13.0/fs/namei.c:488
 */
void path_put(const struct path *path)
{
	dput(path->dentry);
	mntput(path->mnt);
}
     4a4:	mov    0x8(%rbx),%rdi
complete_walk():
/home/lookfiresu/Desktop/my_linux-3.13.0/fs/namei.c:643
		return 0;

	if (!status)
		status = -ESTALE;

	path_put(&nd->path);
     4a8:	mov    $0xffffff8c,%eax
     4ad:	cmove  %eax,%r12d
path_put():
/home/lookfiresu/Desktop/my_linux-3.13.0/fs/namei.c:488
 */
void path_put(const struct path *path)
{
	dput(path->dentry);
	mntput(path->mnt);
}
     4b1:	callq  4b6 <complete_walk+0xa6>
/home/lookfiresu/Desktop/my_linux-3.13.0/fs/namei.c:489
EXPORT_SYMBOL(path_put);
     4b6:	mov    (%rbx),%rdi
     4b9:	callq  4be <complete_walk+0xae>
complete_walk():
/home/lookfiresu/Desktop/my_linux-3.13.0/fs/namei.c:646
		status = -ESTALE;

	path_put(&nd->path);
	return status;
}

     4be:	mov    %r12d,%eax
     4c1:	jmp    478 <complete_walk+0x68>
/home/lookfiresu/Desktop/my_linux-3.13.0/fs/namei.c:620
		}
		if (unlikely(!lockref_get_not_dead(&dentry->d_lockref))) {
			rcu_read_unlock();
			mntput(nd->path.mnt);
			return -ECHILD;
		}
     4c3:	mov    (%rbx),%rdi
     4c6:	callq  4cb <complete_walk+0xbb>
/home/lookfiresu/Desktop/my_linux-3.13.0/fs/namei.c:621
		if (read_seqcount_retry(&dentry->d_seq, nd->seq)) {
     4cb:	mov    $0xfffffff6,%eax
     4d0:	jmp    478 <complete_walk+0x68>
/home/lookfiresu/Desktop/my_linux-3.13.0/fs/namei.c:625
			rcu_read_unlock();
			dput(dentry);
			mntput(nd->path.mnt);
			return -ECHILD;
     4d2:	mov    %r12,%rdi
     4d5:	callq  4da <complete_walk+0xca>
/home/lookfiresu/Desktop/my_linux-3.13.0/fs/namei.c:626
		}
     4da:	mov    (%rbx),%rdi
     4dd:	callq  4e2 <complete_walk+0xd2>
/home/lookfiresu/Desktop/my_linux-3.13.0/fs/namei.c:627
		rcu_read_unlock();
     4e2:	mov    $0xfffffff6,%eax
     4e7:	jmp    478 <complete_walk+0x68>
     4e9:	nopl   0x0(%rax)

00000000000004f0 <follow_managed>:
follow_managed():
/home/lookfiresu/Desktop/my_linux-3.13.0/fs/namei.c:1027
{
	struct vfsmount *mnt = path->mnt; /* held by caller, must be left alone */
	unsigned managed;
	bool need_mntput = false;
	int ret = 0;

     4f0:	callq  4f5 <follow_managed+0x5>
     4f5:	push   %rbp
     4f6:	mov    %esi,%ecx
     4f8:	mov    %rsp,%rbp
     4fb:	push   %r15
     4fd:	push   %r14
/home/lookfiresu/Desktop/my_linux-3.13.0/fs/namei.c:1031
	/* Given that we're not holding a lock here, we retain the value in a
	 * local variable for each dentry as we look at it so that we don't see
	 * the components of that value change under us */
	while (managed = ACCESS_ONCE(path->dentry->d_flags),
     4ff:	xor    %r14d,%r14d
/home/lookfiresu/Desktop/my_linux-3.13.0/fs/namei.c:1027
{
	struct vfsmount *mnt = path->mnt; /* held by caller, must be left alone */
	unsigned managed;
	bool need_mntput = false;
	int ret = 0;

     502:	push   %r13
/home/lookfiresu/Desktop/my_linux-3.13.0/fs/namei.c:1030
	/* Given that we're not holding a lock here, we retain the value in a
	 * local variable for each dentry as we look at it so that we don't see
	 * the components of that value change under us */
     504:	xor    %r13d,%r13d
/home/lookfiresu/Desktop/my_linux-3.13.0/fs/namei.c:1027
{
	struct vfsmount *mnt = path->mnt; /* held by caller, must be left alone */
	unsigned managed;
	bool need_mntput = false;
	int ret = 0;

     507:	push   %r12
     509:	mov    %rdi,%r12
     50c:	push   %rbx
get_current():
/home/lookfiresu/Desktop/my_linux-3.13.0/arch/x86/include/asm/current.h:19
     50d:	mov    %gs:0x0,%rbx
follow_managed():
/home/lookfiresu/Desktop/my_linux-3.13.0/fs/namei.c:1027
     516:	sub    $0x30,%rsp
/home/lookfiresu/Desktop/my_linux-3.13.0/fs/namei.c:1028
	/* Given that we're not holding a lock here, we retain the value in a
     51a:	mov    (%rdi),%rdx
get_current():
/home/lookfiresu/Desktop/my_linux-3.13.0/arch/x86/include/asm/current.h:19
     51d:	mov    %rbx,%r10
     520:	mov    %rbx,%r9
     523:	mov    %rbx,%r8
follow_managed():
/home/lookfiresu/Desktop/my_linux-3.13.0/fs/namei.c:1036 (discriminator 1)
	while (managed = ACCESS_ONCE(path->dentry->d_flags),
	       managed &= DCACHE_MANAGED_DENTRY,
	       unlikely(managed != 0)) {
		/* Allow the filesystem to manage the transit without i_mutex
		 * being held. */
		if (managed & DCACHE_MANAGE_TRANSIT) {
     526:	mov    0x8(%r12),%rdi
     52b:	mov    (%rdi),%r15d
     52e:	test   $0x70000,%r15d
     535:	jne    572 <follow_managed+0x82>
/home/lookfiresu/Desktop/my_linux-3.13.0/fs/namei.c:1080
	if (need_mntput && path->mnt == mnt)
		mntput(path->mnt);
	if (ret == -EISDIR)
		ret = 0;
	return ret < 0 ? ret : need_mntput;
}
     537:	test   %r13b,%r13b
     53a:	je     542 <follow_managed+0x52>
/home/lookfiresu/Desktop/my_linux-3.13.0/fs/namei.c:1080 (discriminator 1)
     53c:	cmp    %rdx,(%r12)
     540:	je     568 <follow_managed+0x78>
/home/lookfiresu/Desktop/my_linux-3.13.0/fs/namei.c:1082

int follow_down_one(struct path *path)
     542:	cmp    $0xffffffeb,%r14d
     546:	je     550 <follow_managed+0x60>
/home/lookfiresu/Desktop/my_linux-3.13.0/fs/namei.c:1084
{
	struct vfsmount *mounted;
     548:	test   %r14d,%r14d
     54b:	mov    %r14d,%eax
     54e:	js     554 <follow_managed+0x64>
/home/lookfiresu/Desktop/my_linux-3.13.0/fs/namei.c:1084 (discriminator 1)
     550:	movzbl %r13b,%eax
/home/lookfiresu/Desktop/my_linux-3.13.0/fs/namei.c:1085

     554:	add    $0x30,%rsp
     558:	pop    %rbx
     559:	pop    %r12
     55b:	pop    %r13
     55d:	pop    %r14
     55f:	pop    %r15
     561:	pop    %rbp
     562:	retq   
     563:	nopl   0x0(%rax,%rax,1)
/home/lookfiresu/Desktop/my_linux-3.13.0/fs/namei.c:1081
		mntput(path->mnt);
	if (ret == -EISDIR)
		ret = 0;
	return ret < 0 ? ret : need_mntput;
}

     568:	mov    %rdx,%rdi
     56b:	callq  570 <follow_managed+0x80>
     570:	jmp    542 <follow_managed+0x52>
/home/lookfiresu/Desktop/my_linux-3.13.0/fs/namei.c:1041
		if (managed & DCACHE_MANAGE_TRANSIT) {
			BUG_ON(!path->dentry->d_op);
			BUG_ON(!path->dentry->d_op->d_manage);
			ret = path->dentry->d_op->d_manage(path->dentry, false);
			if (ret < 0)
				break;
     572:	test   $0x40000,%r15d
     579:	je     5cb <follow_managed+0xdb>
/home/lookfiresu/Desktop/my_linux-3.13.0/fs/namei.c:1042
		}
     57b:	mov    0x60(%rdi),%rsi
     57f:	test   %rsi,%rsi
     582:	je     8e7 <follow_managed+0x3f7>
/home/lookfiresu/Desktop/my_linux-3.13.0/fs/namei.c:1043

     588:	mov    0x50(%rsi),%r11
     58c:	test   %r11,%r11
     58f:	je     8e5 <follow_managed+0x3f5>
     595:	mov    %r8,-0x50(%rbp)
     599:	mov    %r9,-0x48(%rbp)
/home/lookfiresu/Desktop/my_linux-3.13.0/fs/namei.c:1044
		/* Transit to a mounted filesystem. */
     59d:	xor    %esi,%esi
     59f:	mov    %r10,-0x40(%rbp)
     5a3:	mov    %ecx,-0x38(%rbp)
     5a6:	mov    %rdx,-0x30(%rbp)
     5aa:	callq  *%r11
/home/lookfiresu/Desktop/my_linux-3.13.0/fs/namei.c:1045
		if (managed & DCACHE_MOUNTED) {
     5ad:	test   %eax,%eax
/home/lookfiresu/Desktop/my_linux-3.13.0/fs/namei.c:1044
			ret = path->dentry->d_op->d_manage(path->dentry, false);
			if (ret < 0)
				break;
		}

		/* Transit to a mounted filesystem. */
     5af:	mov    %eax,%r14d
/home/lookfiresu/Desktop/my_linux-3.13.0/fs/namei.c:1045
		if (managed & DCACHE_MOUNTED) {
     5b2:	mov    -0x30(%rbp),%rdx
     5b6:	mov    -0x38(%rbp),%ecx
     5b9:	mov    -0x40(%rbp),%r10
     5bd:	mov    -0x48(%rbp),%r9
     5c1:	mov    -0x50(%rbp),%r8
     5c5:	js     537 <follow_managed+0x47>
/home/lookfiresu/Desktop/my_linux-3.13.0/fs/namei.c:1050
			struct vfsmount *mounted = lookup_mnt(path);
			if (mounted) {
				dput(path->dentry);
				if (need_mntput)
					mntput(path->mnt);
     5cb:	test   $0x10000,%r15d
     5d2:	jne    7d6 <follow_managed+0x2e6>
/home/lookfiresu/Desktop/my_linux-3.13.0/fs/namei.c:1069
		if (managed & DCACHE_NEED_AUTOMOUNT) {
			ret = follow_automount(path, flags, &need_mntput);
			if (ret < 0)
				break;
			continue;
		}
     5d8:	and    $0x20000,%r15d
     5df:	je     537 <follow_managed+0x47>
follow_automount():
/home/lookfiresu/Desktop/my_linux-3.13.0/fs/namei.c:952
	if (!path->dentry->d_op || !path->dentry->d_op->d_automount)
		return -EREMOTE;

	/* We don't want to mount if someone's just doing a stat -
	 * unless they're stat'ing a directory and appended a '/' to
	 * the name.
     5e5:	mov    0x8(%r12),%rax
     5ea:	mov    0x60(%rax),%rsi
     5ee:	test   %rsi,%rsi
     5f1:	je     8cf <follow_managed+0x3df>
     5f7:	cmpq   $0x0,0x48(%rsi)
     5fc:	je     8cf <follow_managed+0x3df>
/home/lookfiresu/Desktop/my_linux-3.13.0/fs/namei.c:966
	if (!(flags & (LOOKUP_PARENT | LOOKUP_DIRECTORY |
		     LOOKUP_OPEN | LOOKUP_CREATE | LOOKUP_AUTOMOUNT)) &&
	    path->dentry->d_inode)
		return -EISDIR;

	current->total_link_count++;
     602:	test   $0x316,%ecx
     608:	jne    615 <follow_managed+0x125>
/home/lookfiresu/Desktop/my_linux-3.13.0/fs/namei.c:967
	if (current->total_link_count >= 40)
     60a:	cmpq   $0x0,0x30(%rax)
     60f:	jne    8da <follow_managed+0x3ea>
/home/lookfiresu/Desktop/my_linux-3.13.0/fs/namei.c:971
		return -ELOOP;

	mnt = path->dentry->d_op->d_automount(path);
	if (IS_ERR(mnt)) {
     615:	lea    0x4a8(%rbx),%rsi
     61c:	mov    $0x0,%rax
     623:	jmp    62e <follow_managed+0x13e>
my_strcmp_base():
/home/lookfiresu/Desktop/my_linux-3.13.0/arch/x86/include/asm/current.h:30
	while (1) {
		c1 = *cs++;
		c2 = *ct++;
		if (c1 != c2)
			return c1 < c2 ? -1 : 1;
		if (!c1)
     625:	test   %dil,%dil
     628:	je     7bd <follow_managed+0x2cd>
/home/lookfiresu/Desktop/my_linux-3.13.0/arch/x86/include/asm/current.h:26

static int my_strcmp_base(const char *cs, const char *ct) {
	unsigned char c1, c2;

	while (1) {
		c1 = *cs++;
     62e:	add    $0x1,%rsi
     632:	movzbl -0x1(%rsi),%edi
/home/lookfiresu/Desktop/my_linux-3.13.0/arch/x86/include/asm/current.h:27
		c2 = *ct++;
     636:	add    $0x1,%rax
/home/lookfiresu/Desktop/my_linux-3.13.0/arch/x86/include/asm/current.h:28
		if (c1 != c2)
     63a:	cmp    -0x1(%rax),%dil
     63e:	je     625 <follow_managed+0x135>
follow_automount():
/home/lookfiresu/Desktop/my_linux-3.13.0/fs/namei.c:971
     640:	mov    %r8,%rax
     643:	addl   $0x1,0x4bc(%rax)
/home/lookfiresu/Desktop/my_linux-3.13.0/fs/namei.c:972
		/*
     64a:	lea    0x4a8(%r10),%rsi
     651:	mov    $0x0,%rax
     658:	jmp    663 <follow_managed+0x173>
my_strcmp_base():
/home/lookfiresu/Desktop/my_linux-3.13.0/arch/x86/include/asm/current.h:30
			return c1 < c2 ? -1 : 1;
		if (!c1)
     65a:	test   %dil,%dil
     65d:	je     7a4 <follow_managed+0x2b4>
/home/lookfiresu/Desktop/my_linux-3.13.0/arch/x86/include/asm/current.h:26

static int my_strcmp_base(const char *cs, const char *ct) {
	unsigned char c1, c2;

	while (1) {
		c1 = *cs++;
     663:	add    $0x1,%rsi
     667:	movzbl -0x1(%rsi),%edi
/home/lookfiresu/Desktop/my_linux-3.13.0/arch/x86/include/asm/current.h:27
		c2 = *ct++;
     66b:	add    $0x1,%rax
/home/lookfiresu/Desktop/my_linux-3.13.0/arch/x86/include/asm/current.h:28
		if (c1 != c2)
     66f:	cmp    -0x1(%rax),%dil
     673:	je     65a <follow_managed+0x16a>
follow_automount():
/home/lookfiresu/Desktop/my_linux-3.13.0/fs/namei.c:972
     675:	mov    %r9,%rax
     678:	cmpl   $0x27,0x4bc(%rax)
     67f:	mov    %r8,-0x50(%rbp)
     683:	mov    %r9,-0x48(%rbp)
     687:	mov    %r10,-0x40(%rbp)
     68b:	mov    %ecx,-0x38(%rbp)
     68e:	jg     887 <follow_managed+0x397>
/home/lookfiresu/Desktop/my_linux-3.13.0/fs/namei.c:975
		 * The filesystem is allowed to return -EISDIR here to indicate
		 * it doesn't want to automount.  For instance, autofs would do
		 * this so that its userspace daemon can mount on this dentry.
     694:	mov    0x8(%r12),%rax
     699:	mov    %rdx,-0x30(%rbp)
     69d:	mov    %r12,%rdi
     6a0:	mov    0x60(%rax),%rax
     6a4:	callq  *0x48(%rax)
/home/lookfiresu/Desktop/my_linux-3.13.0/fs/namei.c:976
		 *
     6a7:	cmp    $0xfffffffffffff000,%rax
/home/lookfiresu/Desktop/my_linux-3.13.0/fs/namei.c:975
	mnt = path->dentry->d_op->d_automount(path);
	if (IS_ERR(mnt)) {
		/*
		 * The filesystem is allowed to return -EISDIR here to indicate
		 * it doesn't want to automount.  For instance, autofs would do
		 * this so that its userspace daemon can mount on this dentry.
     6ad:	mov    %rax,%r15
/home/lookfiresu/Desktop/my_linux-3.13.0/fs/namei.c:976
		 *
     6b0:	mov    -0x30(%rbp),%rdx
     6b4:	mov    -0x38(%rbp),%ecx
     6b7:	mov    -0x40(%rbp),%r10
     6bb:	mov    -0x48(%rbp),%r9
     6bf:	mov    -0x50(%rbp),%r8
     6c3:	ja     879 <follow_managed+0x389>
/home/lookfiresu/Desktop/my_linux-3.13.0/fs/namei.c:991
	if (!mnt) /* mount collision */
		return 0;

	if (!*need_mntput) {
		/* lock_mount() may release path->mnt on error */
		mntget(path->mnt);
     6c9:	test   %rax,%rax
     6cc:	je     780 <follow_managed+0x290>
/home/lookfiresu/Desktop/my_linux-3.13.0/fs/namei.c:994
		*need_mntput = true;
	}
	err = finish_automount(mnt, path);
     6d2:	test   %r13b,%r13b
     6d5:	jne    706 <follow_managed+0x216>
/home/lookfiresu/Desktop/my_linux-3.13.0/fs/namei.c:996

	switch (err) {
     6d7:	mov    (%r12),%rdi
     6db:	mov    %r8,-0x50(%rbp)
     6df:	mov    %r9,-0x48(%rbp)
     6e3:	mov    %r10,-0x40(%rbp)
     6e7:	mov    %ecx,-0x38(%rbp)
     6ea:	mov    %rdx,-0x30(%rbp)
     6ee:	callq  6f3 <follow_managed+0x203>
     6f3:	mov    -0x50(%rbp),%r8
     6f7:	mov    -0x48(%rbp),%r9
     6fb:	mov    -0x40(%rbp),%r10
     6ff:	mov    -0x38(%rbp),%ecx
     702:	mov    -0x30(%rbp),%rdx
/home/lookfiresu/Desktop/my_linux-3.13.0/fs/namei.c:999
	case -EBUSY:
		/* Someone else made a mount here whilst we were busy */
		return 0;
     706:	mov    %r12,%rsi
     709:	mov    %r15,%rdi
     70c:	mov    %r8,-0x50(%rbp)
     710:	mov    %r9,-0x48(%rbp)
     714:	mov    %r10,-0x40(%rbp)
     718:	mov    %ecx,-0x38(%rbp)
     71b:	mov    %rdx,-0x30(%rbp)
     71f:	callq  724 <follow_managed+0x234>
/home/lookfiresu/Desktop/my_linux-3.13.0/fs/namei.c:1001
	case 0:
		path_put(path);
     724:	cmp    $0xfffffff0,%eax
/home/lookfiresu/Desktop/my_linux-3.13.0/fs/namei.c:999
	err = finish_automount(mnt, path);

	switch (err) {
	case -EBUSY:
		/* Someone else made a mount here whilst we were busy */
		return 0;
     727:	mov    %eax,%r14d
/home/lookfiresu/Desktop/my_linux-3.13.0/fs/namei.c:1001
	case 0:
		path_put(path);
     72a:	mov    -0x30(%rbp),%rdx
     72e:	mov    -0x38(%rbp),%ecx
     731:	mov    -0x40(%rbp),%r10
     735:	mov    -0x48(%rbp),%r9
     739:	mov    -0x50(%rbp),%r8
     73d:	je     79c <follow_managed+0x2ac>
     73f:	test   %eax,%eax
     741:	jne    788 <follow_managed+0x298>
path_put():
/home/lookfiresu/Desktop/my_linux-3.13.0/fs/namei.c:488
 */
void path_put(const struct path *path)
{
	dput(path->dentry);
	mntput(path->mnt);
}
     743:	mov    0x8(%r12),%rdi
follow_automount():
/home/lookfiresu/Desktop/my_linux-3.13.0/fs/namei.c:1008
		path->dentry = dget(mnt->mnt_root);
		return 0;
	default:
		return err;
	}

     748:	mov    $0x1,%r13d
path_put():
/home/lookfiresu/Desktop/my_linux-3.13.0/fs/namei.c:488
 */
void path_put(const struct path *path)
{
	dput(path->dentry);
	mntput(path->mnt);
}
     74e:	callq  753 <follow_managed+0x263>
/home/lookfiresu/Desktop/my_linux-3.13.0/fs/namei.c:489
EXPORT_SYMBOL(path_put);
     753:	mov    (%r12),%rdi
     757:	callq  75c <follow_managed+0x26c>
follow_automount():
/home/lookfiresu/Desktop/my_linux-3.13.0/fs/namei.c:1007
		path->mnt = mnt;
		path->dentry = dget(mnt->mnt_root);
		return 0;
	default:
		return err;
	}
     75c:	mov    %r15,(%r12)
/home/lookfiresu/Desktop/my_linux-3.13.0/fs/namei.c:1008

     760:	mov    (%r15),%rdi
     763:	callq  30 <dget>
     768:	mov    -0x30(%rbp),%rdx
     76c:	mov    -0x38(%rbp),%ecx
     76f:	mov    -0x40(%rbp),%r10
     773:	mov    -0x48(%rbp),%r9
     777:	mov    -0x50(%rbp),%r8
     77b:	mov    %rax,0x8(%r12)
follow_managed():
/home/lookfiresu/Desktop/my_linux-3.13.0/fs/namei.c:1058
				need_mntput = true;
				continue;
			}

			/* Something is mounted on this dentry in another
			 * namespace and/or whatever was mounted there in this
     780:	xor    %r14d,%r14d
     783:	jmpq   526 <follow_managed+0x36>
follow_automount():
/home/lookfiresu/Desktop/my_linux-3.13.0/fs/namei.c:1001
	switch (err) {
	case -EBUSY:
		/* Someone else made a mount here whilst we were busy */
		return 0;
	case 0:
		path_put(path);
     788:	mov    $0x1,%r13d
follow_managed():
/home/lookfiresu/Desktop/my_linux-3.13.0/fs/namei.c:1071
			if (ret < 0)
				break;
			continue;
		}

		/* We didn't change the current path point */
     78e:	test   %r14d,%r14d
     791:	js     537 <follow_managed+0x47>
     797:	jmpq   526 <follow_managed+0x36>
follow_automount():
/home/lookfiresu/Desktop/my_linux-3.13.0/fs/namei.c:1001
	switch (err) {
	case -EBUSY:
		/* Someone else made a mount here whilst we were busy */
		return 0;
	case 0:
		path_put(path);
     79c:	mov    $0x1,%r13d
     7a2:	jmp    780 <follow_managed+0x290>
/home/lookfiresu/Desktop/my_linux-3.13.0/fs/namei.c:972
	if (current->total_link_count >= 40)
		return -ELOOP;

	mnt = path->dentry->d_op->d_automount(path);
	if (IS_ERR(mnt)) {
		/*
     7a4:	cmpb   $0x0,0x0(%rip)        # 7ab <follow_managed+0x2bb>
     7ab:	je     675 <follow_managed+0x185>
     7b1:	mov    0x0(%rip),%rax        # 7b8 <follow_managed+0x2c8>
     7b8:	jmpq   678 <follow_managed+0x188>
/home/lookfiresu/Desktop/my_linux-3.13.0/fs/namei.c:971
	current->total_link_count++;
	if (current->total_link_count >= 40)
		return -ELOOP;

	mnt = path->dentry->d_op->d_automount(path);
	if (IS_ERR(mnt)) {
     7bd:	cmpb   $0x0,0x0(%rip)        # 7c4 <follow_managed+0x2d4>
     7c4:	je     640 <follow_managed+0x150>
     7ca:	mov    0x0(%rip),%rax        # 7d1 <follow_managed+0x2e1>
     7d1:	jmpq   643 <follow_managed+0x153>
follow_managed():
/home/lookfiresu/Desktop/my_linux-3.13.0/fs/namei.c:1051
			struct vfsmount *mounted = lookup_mnt(path);
			if (mounted) {
				dput(path->dentry);
				if (need_mntput)
					mntput(path->mnt);
				path->mnt = mounted;
     7d6:	mov    %r12,%rdi
     7d9:	mov    %r8,-0x50(%rbp)
     7dd:	mov    %r9,-0x48(%rbp)
     7e1:	mov    %r10,-0x40(%rbp)
     7e5:	mov    %ecx,-0x38(%rbp)
     7e8:	mov    %rdx,-0x30(%rbp)
     7ec:	callq  7f1 <follow_managed+0x301>
/home/lookfiresu/Desktop/my_linux-3.13.0/fs/namei.c:1052
				path->dentry = dget(mounted->mnt_root);
     7f1:	test   %rax,%rax
     7f4:	mov    %rax,-0x58(%rbp)
     7f8:	mov    -0x30(%rbp),%rdx
     7fc:	mov    -0x38(%rbp),%ecx
     7ff:	mov    -0x40(%rbp),%r10
     803:	mov    -0x48(%rbp),%r9
     807:	mov    -0x50(%rbp),%r8
     80b:	je     5d8 <follow_managed+0xe8>
/home/lookfiresu/Desktop/my_linux-3.13.0/fs/namei.c:1053
				need_mntput = true;
     811:	mov    0x8(%r12),%rdi
     816:	callq  81b <follow_managed+0x32b>
/home/lookfiresu/Desktop/my_linux-3.13.0/fs/namei.c:1054
				continue;
     81b:	test   %r13b,%r13b
     81e:	mov    -0x30(%rbp),%rdx
     822:	mov    -0x38(%rbp),%ecx
     825:	mov    -0x40(%rbp),%r10
     829:	mov    -0x48(%rbp),%r9
     82d:	mov    -0x50(%rbp),%r8
     831:	mov    -0x58(%rbp),%rax
     835:	jne    892 <follow_managed+0x3a2>
/home/lookfiresu/Desktop/my_linux-3.13.0/fs/namei.c:1056
			}

     837:	mov    %rax,(%r12)
/home/lookfiresu/Desktop/my_linux-3.13.0/fs/namei.c:1057
			/* Something is mounted on this dentry in another
     83b:	mov    (%rax),%rdi
/home/lookfiresu/Desktop/my_linux-3.13.0/fs/namei.c:1058
			 * namespace and/or whatever was mounted there in this
     83e:	mov    $0x1,%r13d
     844:	mov    %r8,-0x50(%rbp)
     848:	mov    %r9,-0x48(%rbp)
     84c:	mov    %r10,-0x40(%rbp)
     850:	mov    %ecx,-0x38(%rbp)
     853:	mov    %rdx,-0x30(%rbp)
/home/lookfiresu/Desktop/my_linux-3.13.0/fs/namei.c:1057
				path->dentry = dget(mounted->mnt_root);
				need_mntput = true;
				continue;
			}

			/* Something is mounted on this dentry in another
     857:	callq  30 <dget>
/home/lookfiresu/Desktop/my_linux-3.13.0/fs/namei.c:1059
			 * namespace and/or whatever was mounted there in this
			 * namespace got unmounted before lookup_mnt() could
     85c:	mov    -0x30(%rbp),%rdx
/home/lookfiresu/Desktop/my_linux-3.13.0/fs/namei.c:1057
				path->dentry = dget(mounted->mnt_root);
				need_mntput = true;
				continue;
			}

			/* Something is mounted on this dentry in another
     860:	mov    %rax,0x8(%r12)
/home/lookfiresu/Desktop/my_linux-3.13.0/fs/namei.c:1059
			 * namespace and/or whatever was mounted there in this
			 * namespace got unmounted before lookup_mnt() could
     865:	mov    -0x38(%rbp),%ecx
     868:	mov    -0x40(%rbp),%r10
     86c:	mov    -0x48(%rbp),%r9
     870:	mov    -0x50(%rbp),%r8
     874:	jmpq   526 <follow_managed+0x36>
follow_automount():
/home/lookfiresu/Desktop/my_linux-3.13.0/fs/namei.c:986
		if (PTR_ERR(mnt) == -EISDIR && (flags & LOOKUP_PARENT))
			return -EREMOTE;
		return PTR_ERR(mnt);
	}

	if (!mnt) /* mount collision */
     879:	cmp    $0xffffffffffffffeb,%rax
     87d:	je     8ca <follow_managed+0x3da>
/home/lookfiresu/Desktop/my_linux-3.13.0/fs/namei.c:988
		return 0;

     87f:	mov    %r15d,%r14d
     882:	jmpq   78e <follow_managed+0x29e>
/home/lookfiresu/Desktop/my_linux-3.13.0/fs/namei.c:973
		return -ELOOP;

	mnt = path->dentry->d_op->d_automount(path);
	if (IS_ERR(mnt)) {
		/*
		 * The filesystem is allowed to return -EISDIR here to indicate
     887:	mov    $0xffffffd8,%r14d
     88d:	jmpq   537 <follow_managed+0x47>
follow_managed():
/home/lookfiresu/Desktop/my_linux-3.13.0/fs/namei.c:1055
					mntput(path->mnt);
				path->mnt = mounted;
				path->dentry = dget(mounted->mnt_root);
				need_mntput = true;
				continue;
			}
     892:	mov    (%r12),%rdi
     896:	mov    %r8,-0x58(%rbp)
     89a:	mov    %r9,-0x50(%rbp)
     89e:	mov    %r10,-0x48(%rbp)
     8a2:	mov    %ecx,-0x40(%rbp)
     8a5:	mov    %rax,-0x38(%rbp)
     8a9:	callq  8ae <follow_managed+0x3be>
     8ae:	mov    -0x58(%rbp),%r8
     8b2:	mov    -0x50(%rbp),%r9
     8b6:	mov    -0x48(%rbp),%r10
     8ba:	mov    -0x40(%rbp),%ecx
     8bd:	mov    -0x38(%rbp),%rax
     8c1:	mov    -0x30(%rbp),%rdx
     8c5:	jmpq   837 <follow_managed+0x347>
follow_automount():
/home/lookfiresu/Desktop/my_linux-3.13.0/fs/namei.c:986
		if (PTR_ERR(mnt) == -EISDIR && (flags & LOOKUP_PARENT))
			return -EREMOTE;
		return PTR_ERR(mnt);
	}

	if (!mnt) /* mount collision */
     8ca:	test   $0x10,%cl
     8cd:	je     87f <follow_managed+0x38f>
/home/lookfiresu/Desktop/my_linux-3.13.0/fs/namei.c:953
		return -EREMOTE;

	/* We don't want to mount if someone's just doing a stat -
	 * unless they're stat'ing a directory and appended a '/' to
	 * the name.
	 *
     8cf:	mov    $0xffffffbe,%r14d
     8d5:	jmpq   537 <follow_managed+0x47>
/home/lookfiresu/Desktop/my_linux-3.13.0/fs/namei.c:969
		return -EISDIR;

	current->total_link_count++;
	if (current->total_link_count >= 40)
		return -ELOOP;

     8da:	mov    $0xffffffeb,%r14d
     8e0:	jmpq   537 <follow_managed+0x47>
follow_managed():
/home/lookfiresu/Desktop/my_linux-3.13.0/fs/namei.c:1043 (discriminator 1)
			BUG_ON(!path->dentry->d_op->d_manage);
			ret = path->dentry->d_op->d_manage(path->dentry, false);
			if (ret < 0)
				break;
		}

     8e5:	ud2    
/home/lookfiresu/Desktop/my_linux-3.13.0/fs/namei.c:1042 (discriminator 1)
			BUG_ON(!path->dentry->d_op);
			BUG_ON(!path->dentry->d_op->d_manage);
			ret = path->dentry->d_op->d_manage(path->dentry, false);
			if (ret < 0)
				break;
		}
     8e7:	ud2    
     8e9:	nopl   0x0(%rax)

00000000000008f0 <lookup_dcache>:
lookup_dcache():
/home/lookfiresu/Desktop/my_linux-3.13.0/fs/namei.c:1292
	int error;

	*need_lookup = false;
	dentry = d_lookup(dir, name);
	if (dentry) {
		if (dentry->d_flags & DCACHE_OP_REVALIDATE) {
     8f0:	callq  8f5 <lookup_dcache+0x5>
     8f5:	push   %rbp
     8f6:	mov    %rsp,%rbp
     8f9:	push   %r15
     8fb:	mov    %edx,%r15d
     8fe:	push   %r14
     900:	mov    %rcx,%r14
     903:	push   %r13
     905:	mov    %rdi,%r13
     908:	push   %r12
     90a:	mov    %rsi,%r12
/home/lookfiresu/Desktop/my_linux-3.13.0/fs/namei.c:1297
			error = d_revalidate(dentry, flags);
			if (unlikely(error <= 0)) {
				if (error < 0) {
					dput(dentry);
					return ERR_PTR(error);
     90d:	mov    %rdi,%rsi
     910:	mov    %r12,%rdi
/home/lookfiresu/Desktop/my_linux-3.13.0/fs/namei.c:1292
	int error;

	*need_lookup = false;
	dentry = d_lookup(dir, name);
	if (dentry) {
		if (dentry->d_flags & DCACHE_OP_REVALIDATE) {
     913:	push   %rbx
     914:	sub    $0x8,%rsp
/home/lookfiresu/Desktop/my_linux-3.13.0/fs/namei.c:1296
			error = d_revalidate(dentry, flags);
			if (unlikely(error <= 0)) {
				if (error < 0) {
					dput(dentry);
     918:	movb   $0x0,(%rcx)
/home/lookfiresu/Desktop/my_linux-3.13.0/fs/namei.c:1297
					return ERR_PTR(error);
     91b:	callq  920 <lookup_dcache+0x30>
/home/lookfiresu/Desktop/my_linux-3.13.0/fs/namei.c:1298
				} else if (!d_invalidate(dentry)) {
     920:	test   %rax,%rax
/home/lookfiresu/Desktop/my_linux-3.13.0/fs/namei.c:1297
		if (dentry->d_flags & DCACHE_OP_REVALIDATE) {
			error = d_revalidate(dentry, flags);
			if (unlikely(error <= 0)) {
				if (error < 0) {
					dput(dentry);
					return ERR_PTR(error);
     923:	mov    %rax,%rbx
/home/lookfiresu/Desktop/my_linux-3.13.0/fs/namei.c:1298
				} else if (!d_invalidate(dentry)) {
     926:	je     970 <lookup_dcache+0x80>
/home/lookfiresu/Desktop/my_linux-3.13.0/fs/namei.c:1299
					dput(dentry);
     928:	testb  $0x4,(%rax)
     92b:	jne    940 <lookup_dcache+0x50>
/home/lookfiresu/Desktop/my_linux-3.13.0/fs/namei.c:1318
	return dentry;
}

/*
 * Call i_op->lookup on the dentry.  The dentry must be negative and
 * unhashed.
     92d:	mov    %rbx,%rax
/home/lookfiresu/Desktop/my_linux-3.13.0/fs/namei.c:1321
 *
 * dir->d_inode->i_mutex must be held
 */
     930:	add    $0x8,%rsp
     934:	pop    %rbx
     935:	pop    %r12
     937:	pop    %r13
     939:	pop    %r14
     93b:	pop    %r15
     93d:	pop    %rbp
     93e:	retq   
     93f:	nop
d_revalidate():
/home/lookfiresu/Desktop/my_linux-3.13.0/fs/namei.c:591

static inline int d_revalidate(struct dentry *dentry, unsigned int flags)
{
	return dentry->d_op->d_revalidate(dentry, flags);
}

     940:	mov    0x60(%rax),%rax
     944:	mov    %r15d,%esi
     947:	mov    %rbx,%rdi
     94a:	callq  *(%rax)
lookup_dcache():
/home/lookfiresu/Desktop/my_linux-3.13.0/fs/namei.c:1301
					dput(dentry);
					return ERR_PTR(error);
				} else if (!d_invalidate(dentry)) {
					dput(dentry);
					dentry = NULL;
				}
     94c:	cmp    $0x0,%eax
     94f:	jg     92d <lookup_dcache+0x3d>
/home/lookfiresu/Desktop/my_linux-3.13.0/fs/namei.c:1302
			}
     951:	jne    98f <lookup_dcache+0x9f>
/home/lookfiresu/Desktop/my_linux-3.13.0/fs/namei.c:1305
		}
	}

     953:	mov    %rbx,%rdi
     956:	callq  95b <lookup_dcache+0x6b>
     95b:	test   %eax,%eax
     95d:	nopl   (%rax)
     960:	jne    92d <lookup_dcache+0x3d>
/home/lookfiresu/Desktop/my_linux-3.13.0/fs/namei.c:1306
	if (!dentry) {
     962:	mov    %rbx,%rdi
     965:	callq  96a <lookup_dcache+0x7a>
     96a:	nopw   0x0(%rax,%rax,1)
/home/lookfiresu/Desktop/my_linux-3.13.0/fs/namei.c:1314
			return ERR_PTR(-ENOMEM);

		*need_lookup = true;
	}
	return dentry;
}
     970:	mov    %r13,%rsi
     973:	mov    %r12,%rdi
     976:	callq  97b <lookup_dcache+0x8b>
/home/lookfiresu/Desktop/my_linux-3.13.0/fs/namei.c:1315

     97b:	test   %rax,%rax
     97e:	je     986 <lookup_dcache+0x96>
/home/lookfiresu/Desktop/my_linux-3.13.0/fs/namei.c:1318
/*
 * Call i_op->lookup on the dentry.  The dentry must be negative and
 * unhashed.
     980:	movb   $0x1,(%r14)
     984:	jmp    930 <lookup_dcache+0x40>
/home/lookfiresu/Desktop/my_linux-3.13.0/fs/namei.c:1316
		*need_lookup = true;
	}
	return dentry;
}

/*
     986:	mov    $0xfffffffffffffff4,%rax
     98d:	jmp    930 <lookup_dcache+0x40>
/home/lookfiresu/Desktop/my_linux-3.13.0/fs/namei.c:1303
				} else if (!d_invalidate(dentry)) {
					dput(dentry);
					dentry = NULL;
				}
			}
		}
     98f:	mov    %rbx,%rdi
     992:	mov    %eax,-0x2c(%rbp)
     995:	callq  99a <lookup_dcache+0xaa>
/home/lookfiresu/Desktop/my_linux-3.13.0/fs/namei.c:1304
	}
     99a:	movslq -0x2c(%rbp),%rax
     99e:	jmp    930 <lookup_dcache+0x40>

00000000000009a0 <__lookup_hash>:
__lookup_hash():
/home/lookfiresu/Desktop/my_linux-3.13.0/fs/namei.c:1352
	dentry = lookup_dcache(name, base, flags, &need_lookup);
	if (!need_lookup)
		return dentry;

	return lookup_real(base->d_inode, dentry, flags);
}
     9a0:	callq  9a5 <__lookup_hash+0x5>
     9a5:	push   %rbp
     9a6:	mov    %rsp,%rbp
     9a9:	push   %r12
     9ab:	mov    %rsi,%r12
/home/lookfiresu/Desktop/my_linux-3.13.0/fs/namei.c:1356

/*
 *  It's more convoluted than I'd like it to be, but... it's still fairly
 *  small and for now I'd prefer to have fast path as straight as possible.
     9ae:	lea    -0x11(%rbp),%rcx
/home/lookfiresu/Desktop/my_linux-3.13.0/fs/namei.c:1352
	dentry = lookup_dcache(name, base, flags, &need_lookup);
	if (!need_lookup)
		return dentry;

	return lookup_real(base->d_inode, dentry, flags);
}
     9b2:	push   %rbx
     9b3:	mov    %edx,%ebx
     9b5:	sub    $0x8,%rsp
/home/lookfiresu/Desktop/my_linux-3.13.0/fs/namei.c:1356

/*
 *  It's more convoluted than I'd like it to be, but... it's still fairly
 *  small and for now I'd prefer to have fast path as straight as possible.
     9b9:	callq  8f0 <lookup_dcache>
/home/lookfiresu/Desktop/my_linux-3.13.0/fs/namei.c:1357
 *  It _is_ time-critical.
     9be:	cmpb   $0x0,-0x11(%rbp)
     9c2:	je     9d3 <__lookup_hash+0x33>
/home/lookfiresu/Desktop/my_linux-3.13.0/fs/namei.c:1360
 */
static int lookup_fast(struct nameidata *nd, struct path *path, struct inode **inode)
{
     9c4:	mov    0x30(%r12),%rdi
     9c9:	mov    %ebx,%edx
     9cb:	mov    %rax,%rsi
     9ce:	callq  f0 <lookup_real>
/home/lookfiresu/Desktop/my_linux-3.13.0/fs/namei.c:1361
	struct vfsmount *mnt = nd->path.mnt;
     9d3:	add    $0x8,%rsp
     9d7:	pop    %rbx
     9d8:	pop    %r12
     9da:	pop    %rbp
     9db:	retq   
     9dc:	nopl   0x0(%rax)

00000000000009e0 <done_path_create>:
done_path_create():
/home/lookfiresu/Desktop/my_linux-3.13.0/fs/namei.c:3379
	error = dir->i_op->mknod(dir, dentry, mode, dev);
	if (!error)
		fsnotify_create(dir, dentry);
	return error;
}

     9e0:	callq  9e5 <done_path_create+0x5>
     9e5:	push   %rbp
     9e6:	mov    %rsp,%rbp
     9e9:	push   %rbx
     9ea:	mov    %rdi,%rbx
/home/lookfiresu/Desktop/my_linux-3.13.0/fs/namei.c:3380
static int may_mknod(umode_t mode)
     9ed:	mov    %rsi,%rdi
     9f0:	callq  9f5 <done_path_create+0x15>
/home/lookfiresu/Desktop/my_linux-3.13.0/fs/namei.c:3381
{
     9f5:	mov    0x8(%rbx),%rax
     9f9:	mov    0x30(%rax),%rdi
     9fd:	add    $0xa8,%rdi
     a04:	callq  a09 <done_path_create+0x29>
/home/lookfiresu/Desktop/my_linux-3.13.0/fs/namei.c:3382
	switch (mode & S_IFMT) {
     a09:	mov    (%rbx),%rdi
     a0c:	callq  a11 <done_path_create+0x31>
path_put():
/home/lookfiresu/Desktop/my_linux-3.13.0/fs/namei.c:488
 */
void path_put(const struct path *path)
{
	dput(path->dentry);
	mntput(path->mnt);
}
     a11:	mov    0x8(%rbx),%rdi
     a15:	callq  a1a <done_path_create+0x3a>
/home/lookfiresu/Desktop/my_linux-3.13.0/fs/namei.c:489
EXPORT_SYMBOL(path_put);
     a1a:	mov    (%rbx),%rdi
     a1d:	callq  a22 <done_path_create+0x42>
done_path_create():
/home/lookfiresu/Desktop/my_linux-3.13.0/fs/namei.c:3384

static int may_mknod(umode_t mode)
{
	switch (mode & S_IFMT) {
	case S_IFREG:
	case S_IFCHR:
     a22:	pop    %rbx
     a23:	pop    %rbp
     a24:	retq   
     a25:	data32 nopw %cs:0x0(%rax,%rax,1)

0000000000000a30 <dentry_unhash>:
dentry_unhash():
/home/lookfiresu/Desktop/my_linux-3.13.0/fs/namei.c:3562
}

static long do_rmdir(int dfd, const char __user *pathname)
{
	int error = 0;
	struct filename *name;
     a30:	callq  a35 <dentry_unhash+0x5>
     a35:	push   %rbp
     a36:	mov    %rsp,%rbp
     a39:	push   %r12
     a3b:	push   %rbx
     a3c:	mov    %rdi,%rbx
spin_lock():
/home/lookfiresu/Desktop/my_linux-3.13.0/include/linux/spinlock.h:293
	raw_spin_lock_init(&(_lock)->rlock);		\
} while (0)

static inline void spin_lock(spinlock_t *lock)
{
	raw_spin_lock(&lock->rlock);
     a3f:	lea    0x58(%rbx),%r12
dentry_unhash():
/home/lookfiresu/Desktop/my_linux-3.13.0/fs/namei.c:3563
	struct dentry *dentry;
     a43:	callq  a48 <dentry_unhash+0x18>
spin_lock():
/home/lookfiresu/Desktop/my_linux-3.13.0/include/linux/spinlock.h:293
     a48:	mov    %r12,%rdi
     a4b:	callq  a50 <dentry_unhash+0x20>
dentry_unhash():
/home/lookfiresu/Desktop/my_linux-3.13.0/fs/namei.c:3565
	struct nameidata nd;
	unsigned int lookup_flags = 0;
     a50:	cmpl   $0x1,0x5c(%rbx)
     a54:	je     a68 <dentry_unhash+0x38>
spin_unlock():
/home/lookfiresu/Desktop/my_linux-3.13.0/include/linux/spinlock.h:333
	raw_spin_lock_irqsave_nested(spinlock_check(lock), flags, subclass); \
} while (0)

static inline void spin_unlock(spinlock_t *lock)
{
	raw_spin_unlock(&lock->rlock);
     a56:	mov    %r12,%rdi
     a59:	callq  a5e <dentry_unhash+0x2e>
dentry_unhash():
/home/lookfiresu/Desktop/my_linux-3.13.0/fs/namei.c:3568
retry:
	name = user_path_parent(dfd, pathname, &nd, lookup_flags);
	if (IS_ERR(name))
     a5e:	pop    %rbx
     a5f:	pop    %r12
     a61:	pop    %rbp
     a62:	retq   
     a63:	nopl   0x0(%rax,%rax,1)
/home/lookfiresu/Desktop/my_linux-3.13.0/fs/namei.c:3566
	int error = 0;
	struct filename *name;
	struct dentry *dentry;
	struct nameidata nd;
	unsigned int lookup_flags = 0;
retry:
     a68:	mov    %rbx,%rdi
     a6b:	callq  a70 <dentry_unhash+0x40>
spin_unlock():
/home/lookfiresu/Desktop/my_linux-3.13.0/include/linux/spinlock.h:333
     a70:	mov    %r12,%rdi
     a73:	callq  a78 <dentry_unhash+0x48>
dentry_unhash():
/home/lookfiresu/Desktop/my_linux-3.13.0/fs/namei.c:3568
	name = user_path_parent(dfd, pathname, &nd, lookup_flags);
	if (IS_ERR(name))
     a78:	pop    %rbx
     a79:	pop    %r12
     a7b:	pop    %rbp
     a7c:	retq   
     a7d:	nopl   (%rax)

0000000000000a80 <vfs_readlink>:
vfs_readlink():
/home/lookfiresu/Desktop/my_linux-3.13.0/fs/namei.c:4325
	kaddr = kmap(page);
	nd_terminate_link(kaddr, dentry->d_inode->i_size, PAGE_SIZE - 1);
	return kaddr;
}

int page_readlink(struct dentry *dentry, char __user *buffer, int buflen)
     a80:	callq  a85 <vfs_readlink+0x5>
     a85:	push   %rbp
/home/lookfiresu/Desktop/my_linux-3.13.0/fs/namei.c:4329
{
	struct page *page = NULL;
	char *s = page_getlink(dentry, &page);
	int res = vfs_readlink(dentry,buffer,buflen,s);
     a86:	cmp    $0xfffffffffffff000,%rcx
/home/lookfiresu/Desktop/my_linux-3.13.0/fs/namei.c:4325
	kaddr = kmap(page);
	nd_terminate_link(kaddr, dentry->d_inode->i_size, PAGE_SIZE - 1);
	return kaddr;
}

int page_readlink(struct dentry *dentry, char __user *buffer, int buflen)
     a8d:	mov    %rsp,%rbp
     a90:	push   %r13
     a92:	push   %r12
     a94:	mov    %rcx,%r12
     a97:	push   %rbx
/home/lookfiresu/Desktop/my_linux-3.13.0/fs/namei.c:4329
{
	struct page *page = NULL;
	char *s = page_getlink(dentry, &page);
	int res = vfs_readlink(dentry,buffer,buflen,s);
     a98:	ja     acd <vfs_readlink+0x4d>
     a9a:	mov    %edx,%ebx
/home/lookfiresu/Desktop/my_linux-3.13.0/fs/namei.c:4332
	if (page) {
		kunmap(page);
		page_cache_release(page);
     a9c:	mov    %rcx,%rdi
     a9f:	mov    %rsi,%r13
     aa2:	callq  aa7 <vfs_readlink+0x27>
     aa7:	cmp    %eax,%ebx
copy_to_user():
/home/lookfiresu/Desktop/my_linux-3.13.0/arch/x86/include/asm/uaccess.h:631

	might_fault();

	/* See the comment in copy_from_user() above. */
	if (likely(sz < 0 || sz >= n))
		n = _copy_to_user(to, from, n);
     aa9:	mov    %r12,%rsi
     aac:	mov    %r13,%rdi
vfs_readlink():
/home/lookfiresu/Desktop/my_linux-3.13.0/fs/namei.c:4332
     aaf:	cmovae %eax,%ebx
copy_to_user():
/home/lookfiresu/Desktop/my_linux-3.13.0/arch/x86/include/asm/uaccess.h:631
     ab2:	mov    %ebx,%edx
     ab4:	callq  ab9 <vfs_readlink+0x39>
vfs_readlink():
/home/lookfiresu/Desktop/my_linux-3.13.0/fs/namei.c:4336
	}
	return res;
}

     ab9:	test   %rax,%rax
     abc:	mov    $0xfffffff2,%eax
     ac1:	cmovne %eax,%ebx
/home/lookfiresu/Desktop/my_linux-3.13.0/fs/namei.c:4339
void *page_follow_link_light(struct dentry *dentry, struct nameidata *nd)
{
	struct page *page = NULL;
     ac4:	mov    %ebx,%eax
     ac6:	pop    %rbx
     ac7:	pop    %r12
     ac9:	pop    %r13
     acb:	pop    %rbp
     acc:	retq   
/home/lookfiresu/Desktop/my_linux-3.13.0/fs/namei.c:4328
}

int page_readlink(struct dentry *dentry, char __user *buffer, int buflen)
{
	struct page *page = NULL;
	char *s = page_getlink(dentry, &page);
     acd:	mov    %ecx,%ebx
     acf:	jmp    ac4 <vfs_readlink+0x44>
     ad1:	data32 data32 data32 data32 data32 nopw %cs:0x0(%rax,%rax,1)

0000000000000ae0 <generic_readlink>:
generic_readlink():
/home/lookfiresu/Desktop/my_linux-3.13.0/fs/namei.c:4347
}

void page_put_link(struct dentry *dentry, struct nameidata *nd, void *cookie)
{
	struct page *page = cookie;

     ae0:	callq  ae5 <generic_readlink+0x5>
     ae5:	push   %rbp
     ae6:	mov    %rsp,%rbp
     ae9:	push   %r14
     aeb:	mov    %edx,%r14d
     aee:	push   %r13
     af0:	mov    %rsi,%r13
     af3:	push   %r12
     af5:	push   %rbx
     af6:	mov    %rdi,%rbx
     af9:	and    $0xfffffffffffffff0,%rsp
     afd:	sub    $0xa0,%rsp
/home/lookfiresu/Desktop/my_linux-3.13.0/fs/namei.c:4353
	if (page) {
		kunmap(page);
		page_cache_release(page);
	}
}

     b04:	mov    0x30(%rdi),%rax
/home/lookfiresu/Desktop/my_linux-3.13.0/fs/namei.c:4352

	if (page) {
		kunmap(page);
		page_cache_release(page);
	}
}
     b08:	movl   $0x0,0x48(%rsp)
/home/lookfiresu/Desktop/my_linux-3.13.0/fs/namei.c:4353

     b10:	mov    %rsp,%rsi
     b13:	mov    0x20(%rax),%rax
     b17:	callq  *0x8(%rax)
/home/lookfiresu/Desktop/my_linux-3.13.0/fs/namei.c:4354
/*
     b1a:	cmp    $0xfffffffffffff000,%rax
/home/lookfiresu/Desktop/my_linux-3.13.0/fs/namei.c:4353
	if (page) {
		kunmap(page);
		page_cache_release(page);
	}
}

     b20:	mov    %rax,%r12
/home/lookfiresu/Desktop/my_linux-3.13.0/fs/namei.c:4354
/*
     b23:	ja     b6b <generic_readlink+0x8b>
nd_get_link():
/home/lookfiresu/Desktop/my_linux-3.13.0/include/linux/namei.h:93
	nd->saved_names[nd->depth] = path;
}

static inline char *nd_get_link(struct nameidata *nd)
{
	return nd->saved_names[nd->depth];
     b25:	mov    0x48(%rsp),%eax
generic_readlink():
/home/lookfiresu/Desktop/my_linux-3.13.0/fs/namei.c:4357
 * The nofs argument instructs pagecache_write_begin to pass AOP_FLAG_NOFS
 */
int __page_symlink(struct inode *inode, const char *symname, int len, int nofs)
     b29:	mov    %r14d,%edx
     b2c:	mov    %r13,%rsi
     b2f:	mov    %rbx,%rdi
     b32:	mov    0x50(%rsp,%rax,8),%rcx
     b37:	callq  b3c <generic_readlink+0x5c>
/home/lookfiresu/Desktop/my_linux-3.13.0/fs/namei.c:4358
{
     b3c:	mov    0x30(%rbx),%rdx
/home/lookfiresu/Desktop/my_linux-3.13.0/fs/namei.c:4360
	struct address_space *mapping = inode->i_mapping;
	struct page *page;
     b40:	mov    %eax,%r13d
/home/lookfiresu/Desktop/my_linux-3.13.0/fs/namei.c:4358

/*
 * The nofs argument instructs pagecache_write_begin to pass AOP_FLAG_NOFS
 */
int __page_symlink(struct inode *inode, const char *symname, int len, int nofs)
{
     b43:	mov    0x20(%rdx),%rdx
     b47:	mov    0x28(%rdx),%rcx
     b4b:	test   %rcx,%rcx
     b4e:	je     b5b <generic_readlink+0x7b>
/home/lookfiresu/Desktop/my_linux-3.13.0/fs/namei.c:4359
	struct address_space *mapping = inode->i_mapping;
     b50:	mov    %r12,%rdx
     b53:	mov    %rsp,%rsi
     b56:	mov    %rbx,%rdi
     b59:	callq  *%rcx
/home/lookfiresu/Desktop/my_linux-3.13.0/fs/namei.c:4361
	struct page *page;
	void *fsdata;
     b5b:	lea    -0x20(%rbp),%rsp
     b5f:	mov    %r13d,%eax
     b62:	pop    %rbx
     b63:	pop    %r12
     b65:	pop    %r13
     b67:	pop    %r14
     b69:	pop    %rbp
     b6a:	retq   
/home/lookfiresu/Desktop/my_linux-3.13.0/fs/namei.c:4355
		page_cache_release(page);
	}
}

/*
 * The nofs argument instructs pagecache_write_begin to pass AOP_FLAG_NOFS
     b6b:	mov    %eax,%r13d
     b6e:	jmp    b5b <generic_readlink+0x7b>

0000000000000b70 <page_put_link>:
page_put_link():
/home/lookfiresu/Desktop/my_linux-3.13.0/fs/namei.c:4398
	return __page_symlink(inode, symname, len,
			!(mapping_gfp_mask(inode->i_mapping) & __GFP_FS));
}

const struct inode_operations page_symlink_inode_operations = {
	.readlink	= generic_readlink,
     b70:	callq  b75 <page_put_link+0x5>
/home/lookfiresu/Desktop/my_linux-3.13.0/fs/namei.c:4401
	.follow_link	= page_follow_link_light,
	.put_link	= page_put_link,
};
     b75:	test   %rdx,%rdx
     b78:	je     b87 <page_put_link+0x17>
/home/lookfiresu/Desktop/my_linux-3.13.0/fs/namei.c:4398
	return __page_symlink(inode, symname, len,
			!(mapping_gfp_mask(inode->i_mapping) & __GFP_FS));
}

const struct inode_operations page_symlink_inode_operations = {
	.readlink	= generic_readlink,
     b7a:	push   %rbp
/home/lookfiresu/Desktop/my_linux-3.13.0/fs/namei.c:4403
	.follow_link	= page_follow_link_light,
	.put_link	= page_put_link,
};

EXPORT_SYMBOL(user_path_at);
     b7b:	mov    %rdx,%rdi
/home/lookfiresu/Desktop/my_linux-3.13.0/fs/namei.c:4398
	return __page_symlink(inode, symname, len,
			!(mapping_gfp_mask(inode->i_mapping) & __GFP_FS));
}

const struct inode_operations page_symlink_inode_operations = {
	.readlink	= generic_readlink,
     b7e:	mov    %rsp,%rbp
/home/lookfiresu/Desktop/my_linux-3.13.0/fs/namei.c:4403
	.follow_link	= page_follow_link_light,
	.put_link	= page_put_link,
};

EXPORT_SYMBOL(user_path_at);
     b81:	callq  b86 <page_put_link+0x16>
/home/lookfiresu/Desktop/my_linux-3.13.0/fs/namei.c:4405
EXPORT_SYMBOL(follow_down_one);
EXPORT_SYMBOL(follow_down);
     b86:	pop    %rbp
     b87:	repz retq 
     b89:	nopl   0x0(%rax)

0000000000000b90 <__page_symlink>:
__page_symlink():
/home/lookfiresu/Desktop/my_linux-3.13.0/fs/namei.c:4411
EXPORT_SYMBOL(follow_up);
EXPORT_SYMBOL(get_write_access); /* nfsd */
EXPORT_SYMBOL(lock_rename);
EXPORT_SYMBOL(lookup_one_len);
EXPORT_SYMBOL(page_follow_link_light);
EXPORT_SYMBOL(page_put_link);
     b90:	callq  b95 <__page_symlink+0x5>
     b95:	push   %rbp
     b96:	mov    %rsp,%rbp
     b99:	push   %r15
     b9b:	mov    %rsi,%r15
     b9e:	push   %r14
     ba0:	lea    -0x30(%rbp),%r14
     ba4:	push   %r13
     ba6:	push   %r12
     ba8:	push   %rbx
     ba9:	lea    -0x1(%rdx),%ebx
     bac:	sub    $0x28,%rsp
/home/lookfiresu/Desktop/my_linux-3.13.0/fs/namei.c:4417
EXPORT_SYMBOL(page_readlink);
EXPORT_SYMBOL(__page_symlink);
EXPORT_SYMBOL(page_symlink);
EXPORT_SYMBOL(page_symlink_inode_operations);
EXPORT_SYMBOL(kern_path);
EXPORT_SYMBOL(vfs_path_lookup);
     bb0:	cmp    $0x1,%ecx
/home/lookfiresu/Desktop/my_linux-3.13.0/fs/namei.c:4428
EXPORT_SYMBOL(vfs_mknod);
EXPORT_SYMBOL(generic_permission);
EXPORT_SYMBOL(vfs_readlink);
EXPORT_SYMBOL(vfs_rename);
EXPORT_SYMBOL(vfs_rmdir);
EXPORT_SYMBOL(vfs_symlink);
     bb3:	movslq %ebx,%rax
/home/lookfiresu/Desktop/my_linux-3.13.0/fs/namei.c:4417
EXPORT_SYMBOL(page_readlink);
EXPORT_SYMBOL(__page_symlink);
EXPORT_SYMBOL(page_symlink);
EXPORT_SYMBOL(page_symlink_inode_operations);
EXPORT_SYMBOL(kern_path);
EXPORT_SYMBOL(vfs_path_lookup);
     bb6:	sbb    %r13d,%r13d
/home/lookfiresu/Desktop/my_linux-3.13.0/fs/namei.c:4411
EXPORT_SYMBOL(follow_up);
EXPORT_SYMBOL(get_write_access); /* nfsd */
EXPORT_SYMBOL(lock_rename);
EXPORT_SYMBOL(lookup_one_len);
EXPORT_SYMBOL(page_follow_link_light);
EXPORT_SYMBOL(page_put_link);
     bb9:	mov    %rdi,-0x48(%rbp)
/home/lookfiresu/Desktop/my_linux-3.13.0/fs/namei.c:4412
EXPORT_SYMBOL(page_readlink);
     bbd:	mov    0x30(%rdi),%r12
/home/lookfiresu/Desktop/my_linux-3.13.0/fs/namei.c:4417
EXPORT_SYMBOL(__page_symlink);
EXPORT_SYMBOL(page_symlink);
EXPORT_SYMBOL(page_symlink_inode_operations);
EXPORT_SYMBOL(kern_path);
EXPORT_SYMBOL(vfs_path_lookup);
     bc1:	and    $0xfffffffc,%r13d
/home/lookfiresu/Desktop/my_linux-3.13.0/fs/namei.c:4428
EXPORT_SYMBOL(vfs_mknod);
EXPORT_SYMBOL(generic_permission);
EXPORT_SYMBOL(vfs_readlink);
EXPORT_SYMBOL(vfs_rename);
EXPORT_SYMBOL(vfs_rmdir);
EXPORT_SYMBOL(vfs_symlink);
     bc5:	mov    %rax,-0x40(%rbp)
/home/lookfiresu/Desktop/my_linux-3.13.0/fs/namei.c:4417
EXPORT_SYMBOL(page_readlink);
EXPORT_SYMBOL(__page_symlink);
EXPORT_SYMBOL(page_symlink);
EXPORT_SYMBOL(page_symlink_inode_operations);
EXPORT_SYMBOL(kern_path);
EXPORT_SYMBOL(vfs_path_lookup);
     bc9:	add    $0x5,%r13d
     bcd:	jmp    c37 <__page_symlink+0xa7>
     bcf:	nop
/home/lookfiresu/Desktop/my_linux-3.13.0/fs/namei.c:4427
EXPORT_SYMBOL(vfs_mkdir);
EXPORT_SYMBOL(vfs_mknod);
EXPORT_SYMBOL(generic_permission);
EXPORT_SYMBOL(vfs_readlink);
EXPORT_SYMBOL(vfs_rename);
EXPORT_SYMBOL(vfs_rmdir);
     bd0:	mov    -0x38(%rbp),%rdi
__preempt_count_add():
/home/lookfiresu/Desktop/my_linux-3.13.0/arch/x86/include/asm/preempt.h:75
 * The various preempt_count add/sub methods
 */

static __always_inline void __preempt_count_add(int val)
{
	__this_cpu_add_4(__preempt_count, val);
     bd4:	incl   %gs:0x0
lowmem_page_address():
/home/lookfiresu/Desktop/my_linux-3.13.0/include/linux/mm.h:841
 */
#include <linux/vmstat.h>

static __always_inline void *lowmem_page_address(const struct page *page)
{
	return __va(PFN_PHYS(page_to_pfn(page)));
     bdc:	movabs $0x160000000000,%rax
__page_symlink():
/home/lookfiresu/Desktop/my_linux-3.13.0/fs/namei.c:4428
EXPORT_SYMBOL(vfs_symlink);
     be6:	mov    -0x40(%rbp),%rdx
     bea:	mov    %r15,%rsi
lowmem_page_address():
/home/lookfiresu/Desktop/my_linux-3.13.0/include/linux/mm.h:841
     bed:	add    %rax,%rdi
     bf0:	movabs $0xffff880000000000,%rax
     bfa:	sar    $0x6,%rdi
     bfe:	shl    $0xc,%rdi
     c02:	add    %rax,%rdi
__page_symlink():
/home/lookfiresu/Desktop/my_linux-3.13.0/fs/namei.c:4428
     c05:	callq  c0a <__page_symlink+0x7a>
/home/lookfiresu/Desktop/my_linux-3.13.0/fs/namei.c:4431
EXPORT_SYMBOL(vfs_unlink);
EXPORT_SYMBOL(dentry_unhash);
EXPORT_SYMBOL(generic_readlink);
     c0a:	mov    -0x30(%rbp),%rax
     c0e:	mov    -0x38(%rbp),%r9
     c12:	xor    %edx,%edx
     c14:	xor    %edi,%edi
     c16:	mov    %ebx,%r8d
     c19:	mov    %ebx,%ecx
     c1b:	mov    %r12,%rsi
     c1e:	mov    %rax,(%rsp)
__preempt_count_sub():
/home/lookfiresu/Desktop/my_linux-3.13.0/arch/x86/include/asm/preempt.h:80
}

static __always_inline void __preempt_count_sub(int val)
{
	__this_cpu_add_4(__preempt_count, -val);
     c22:	decl   %gs:0x0
__page_symlink():
/home/lookfiresu/Desktop/my_linux-3.13.0/fs/namei.c:4431
     c2a:	callq  c2f <__page_symlink+0x9f>
/home/lookfiresu/Desktop/my_linux-3.13.0/fs/namei.c:4433
     c2f:	test   %eax,%eax
     c31:	js     c58 <__page_symlink+0xc8>
/home/lookfiresu/Desktop/my_linux-3.13.0/fs/namei.c:4435
     c33:	cmp    %eax,%ebx
     c35:	jle    c70 <__page_symlink+0xe0>
/home/lookfiresu/Desktop/my_linux-3.13.0/fs/namei.c:4422
EXPORT_SYMBOL(vfs_path_lookup);
EXPORT_SYMBOL(inode_permission);
EXPORT_SYMBOL(unlock_rename);
EXPORT_SYMBOL(vfs_create);
EXPORT_SYMBOL(vfs_link);
EXPORT_SYMBOL(vfs_mkdir);
     c37:	lea    -0x38(%rbp),%r9
     c3b:	xor    %edx,%edx
     c3d:	xor    %edi,%edi
     c3f:	mov    %r14,(%rsp)
     c43:	mov    %r13d,%r8d
     c46:	mov    %ebx,%ecx
     c48:	mov    %r12,%rsi
     c4b:	callq  c50 <__page_symlink+0xc0>
/home/lookfiresu/Desktop/my_linux-3.13.0/fs/namei.c:4424
EXPORT_SYMBOL(vfs_mknod);
EXPORT_SYMBOL(generic_permission);
     c50:	test   %eax,%eax
     c52:	je     bd0 <__page_symlink+0x40>
/home/lookfiresu/Desktop/my_linux-3.13.0/fs/namei.c:4442
     c58:	add    $0x28,%rsp
     c5c:	pop    %rbx
     c5d:	pop    %r12
     c5f:	pop    %r13
     c61:	pop    %r14
     c63:	pop    %r15
     c65:	pop    %rbp
     c66:	retq   
     c67:	nopw   0x0(%rax,%rax,1)
mark_inode_dirty():
/home/lookfiresu/Desktop/my_linux-3.13.0/include/linux/fs.h:1753
#define I_DIRTY (I_DIRTY_SYNC | I_DIRTY_DATASYNC | I_DIRTY_PAGES)

extern void __mark_inode_dirty(struct inode *, int);
static inline void mark_inode_dirty(struct inode *inode)
{
	__mark_inode_dirty(inode, I_DIRTY);
     c70:	mov    -0x48(%rbp),%rdi
     c74:	mov    $0x7,%esi
     c79:	callq  c7e <__page_symlink+0xee>
__page_symlink():
/home/lookfiresu/Desktop/my_linux-3.13.0/fs/namei.c:4442
     c7e:	add    $0x28,%rsp
/home/lookfiresu/Desktop/my_linux-3.13.0/fs/namei.c:4439
     c82:	xor    %eax,%eax
/home/lookfiresu/Desktop/my_linux-3.13.0/fs/namei.c:4442
     c84:	pop    %rbx
     c85:	pop    %r12
     c87:	pop    %r13
     c89:	pop    %r14
     c8b:	pop    %r15
     c8d:	pop    %rbp
     c8e:	retq   
     c8f:	nop

0000000000000c90 <page_symlink>:
page_symlink():
/home/lookfiresu/Desktop/my_linux-3.13.0/fs/namei.c:4445
     c90:	callq  c95 <page_symlink+0x5>
     c95:	push   %rbp
/home/lookfiresu/Desktop/my_linux-3.13.0/fs/namei.c:4447
     c96:	mov    0x30(%rdi),%rax
/home/lookfiresu/Desktop/my_linux-3.13.0/fs/namei.c:4445
     c9a:	mov    %rsp,%rbp
mapping_gfp_mask():
/home/lookfiresu/Desktop/my_linux-3.13.0/include/linux/pagemap.h:75
	return mapping && test_bit(AS_BALLOON_MAP, &mapping->flags);
}

static inline gfp_t mapping_gfp_mask(struct address_space * mapping)
{
	return (__force gfp_t)mapping->flags & __GFP_BITS_MASK;
     c9d:	mov    0x78(%rax),%rcx
page_symlink():
/home/lookfiresu/Desktop/my_linux-3.13.0/fs/namei.c:4446
     ca1:	shr    $0x7,%ecx
     ca4:	xor    $0x1,%ecx
     ca7:	and    $0x1,%ecx
     caa:	callq  caf <page_symlink+0x1f>
/home/lookfiresu/Desktop/my_linux-3.13.0/fs/namei.c:4448
     caf:	pop    %rbp
     cb0:	retq   
     cb1:	data32 data32 data32 data32 data32 nopw %cs:0x0(%rax,%rax,1)

0000000000000cc0 <terminate_walk>:
terminate_walk():
/home/lookfiresu/Desktop/my_linux-3.13.0/fs/namei.c:1512
		if (!(nd->flags & LOOKUP_ROOT))
			nd->root.mnt = NULL;
		rcu_read_unlock();
	}
}

     cc0:	callq  cc5 <terminate_walk+0x5>
     cc5:	push   %rbp
     cc6:	mov    %rsp,%rbp
     cc9:	push   %rbx
/home/lookfiresu/Desktop/my_linux-3.13.0/fs/namei.c:1513
/*
     cca:	mov    0x38(%rdi),%eax
/home/lookfiresu/Desktop/my_linux-3.13.0/fs/namei.c:1512
		if (!(nd->flags & LOOKUP_ROOT))
			nd->root.mnt = NULL;
		rcu_read_unlock();
	}
}

     ccd:	mov    %rdi,%rbx
/home/lookfiresu/Desktop/my_linux-3.13.0/fs/namei.c:1513
/*
     cd0:	test   $0x40,%al
     cd2:	je     cf8 <terminate_walk+0x38>
/home/lookfiresu/Desktop/my_linux-3.13.0/fs/namei.c:1516
 * Do we need to follow links? We _really_ want to be able
 * to do this check without having to look at inode->i_op,
 * so we keep a cache of "no, this doesn't need follow_link"
     cd4:	mov    %eax,%edx
     cd6:	and    $0xffffffbf,%edx
/home/lookfiresu/Desktop/my_linux-3.13.0/fs/namei.c:1517
 * for the common case.
     cd9:	test   $0x20,%ah
/home/lookfiresu/Desktop/my_linux-3.13.0/fs/namei.c:1516
}

/*
 * Do we need to follow links? We _really_ want to be able
 * to do this check without having to look at inode->i_op,
 * so we keep a cache of "no, this doesn't need follow_link"
     cdc:	mov    %edx,0x38(%rdi)
/home/lookfiresu/Desktop/my_linux-3.13.0/fs/namei.c:1517
 * for the common case.
     cdf:	je     ce8 <terminate_walk+0x28>
/home/lookfiresu/Desktop/my_linux-3.13.0/fs/namei.c:1521
 */
static inline int should_follow_link(struct dentry *dentry, int follow)
{
	return unlikely(d_is_symlink(dentry)) ? follow : 0;
     ce1:	pop    %rbx
     ce2:	pop    %rbp
     ce3:	retq   
     ce4:	nopl   0x0(%rax)
/home/lookfiresu/Desktop/my_linux-3.13.0/fs/namei.c:1518
/*
 * Do we need to follow links? We _really_ want to be able
 * to do this check without having to look at inode->i_op,
 * so we keep a cache of "no, this doesn't need follow_link"
 * for the common case.
 */
     ce8:	movq   $0x0,0x20(%rdi)
     cf0:	jmp    ce1 <terminate_walk+0x21>
     cf2:	nopw   0x0(%rax,%rax,1)
path_put():
/home/lookfiresu/Desktop/my_linux-3.13.0/fs/namei.c:488
 */
void path_put(const struct path *path)
{
	dput(path->dentry);
	mntput(path->mnt);
}
     cf8:	mov    0x8(%rdi),%rdi
     cfc:	callq  d01 <terminate_walk+0x41>
/home/lookfiresu/Desktop/my_linux-3.13.0/fs/namei.c:489
EXPORT_SYMBOL(path_put);
     d01:	mov    (%rbx),%rdi
     d04:	callq  d09 <terminate_walk+0x49>
terminate_walk():
/home/lookfiresu/Desktop/my_linux-3.13.0/fs/namei.c:1521
 * so we keep a cache of "no, this doesn't need follow_link"
 * for the common case.
 */
static inline int should_follow_link(struct dentry *dentry, int follow)
{
	return unlikely(d_is_symlink(dentry)) ? follow : 0;
     d09:	pop    %rbx
     d0a:	pop    %rbp
     d0b:	retq   
     d0c:	nopl   0x0(%rax)

0000000000000d10 <path_put_conditional.isra.13>:
path_put_conditional():
/home/lookfiresu/Desktop/my_linux-3.13.0/fs/namei.c:671
	}
}

static void path_put_conditional(struct path *path, struct nameidata *nd)
{
	dput(path->dentry);
     d10:	callq  d15 <path_put_conditional.isra.13+0x5>
     d15:	push   %rbp
     d16:	mov    %rsp,%rbp
     d19:	push   %r12
     d1b:	mov    %rsi,%r12
     d1e:	push   %rbx
     d1f:	mov    %rdi,%rbx
/home/lookfiresu/Desktop/my_linux-3.13.0/fs/namei.c:673
	if (path->mnt != nd->path.mnt)
		mntput(path->mnt);
     d22:	mov    0x8(%rdi),%rdi
     d26:	callq  d2b <path_put_conditional.isra.13+0x1b>
/home/lookfiresu/Desktop/my_linux-3.13.0/fs/namei.c:674
}
     d2b:	mov    (%rbx),%rdi
     d2e:	cmp    (%r12),%rdi
     d32:	je     d39 <path_put_conditional.isra.13+0x29>
/home/lookfiresu/Desktop/my_linux-3.13.0/fs/namei.c:675

     d34:	callq  d39 <path_put_conditional.isra.13+0x29>
/home/lookfiresu/Desktop/my_linux-3.13.0/fs/namei.c:676
static inline void path_to_nameidata(const struct path *path, struct nameidata *nd)
     d39:	pop    %rbx
     d3a:	pop    %r12
     d3c:	pop    %rbp
     d3d:	retq   
path_put_conditional.isra.13():
     d3e:	xchg   %ax,%ax

0000000000000d40 <lock_rename>:
lock_rename():
/home/lookfiresu/Desktop/my_linux-3.13.0/fs/namei.c:2471
	mutex_lock_nested(&p1->d_inode->i_mutex, I_MUTEX_PARENT);
	mutex_lock_nested(&p2->d_inode->i_mutex, I_MUTEX_CHILD);
	return NULL;
}

void unlock_rename(struct dentry *p1, struct dentry *p2)
     d40:	callq  d45 <lock_rename+0x5>
     d45:	push   %rbp
/home/lookfiresu/Desktop/my_linux-3.13.0/fs/namei.c:2474
{
	mutex_unlock(&p1->d_inode->i_mutex);
	if (p1 != p2) {
     d46:	cmp    %rsi,%rdi
/home/lookfiresu/Desktop/my_linux-3.13.0/fs/namei.c:2471
	mutex_lock_nested(&p1->d_inode->i_mutex, I_MUTEX_PARENT);
	mutex_lock_nested(&p2->d_inode->i_mutex, I_MUTEX_CHILD);
	return NULL;
}

void unlock_rename(struct dentry *p1, struct dentry *p2)
     d49:	mov    %rsp,%rbp
     d4c:	push   %r13
     d4e:	push   %r12
     d50:	mov    %rsi,%r12
     d53:	push   %rbx
     d54:	mov    %rdi,%rbx
/home/lookfiresu/Desktop/my_linux-3.13.0/fs/namei.c:2474
{
	mutex_unlock(&p1->d_inode->i_mutex);
	if (p1 != p2) {
     d57:	je     df0 <lock_rename+0xb0>
/home/lookfiresu/Desktop/my_linux-3.13.0/fs/namei.c:2479
		mutex_unlock(&p2->d_inode->i_mutex);
		mutex_unlock(&p1->d_inode->i_sb->s_vfs_rename_mutex);
	}
}

     d5d:	mov    0x30(%rdi),%rax
     d61:	mov    0x28(%rax),%rdi
     d65:	add    $0x310,%rdi
     d6c:	callq  d71 <lock_rename+0x31>
/home/lookfiresu/Desktop/my_linux-3.13.0/fs/namei.c:2481
int vfs_create(struct inode *dir, struct dentry *dentry, umode_t mode, bool want_excl)
{
     d71:	mov    %rbx,%rsi
     d74:	mov    %r12,%rdi
     d77:	callq  d7c <lock_rename+0x3c>
/home/lookfiresu/Desktop/my_linux-3.13.0/fs/namei.c:2482
  MY_PRINTK(get_current()->comm);
     d7c:	test   %rax,%rax
/home/lookfiresu/Desktop/my_linux-3.13.0/fs/namei.c:2481
		mutex_unlock(&p1->d_inode->i_sb->s_vfs_rename_mutex);
	}
}

int vfs_create(struct inode *dir, struct dentry *dentry, umode_t mode, bool want_excl)
{
     d7f:	mov    %rax,%r13
/home/lookfiresu/Desktop/my_linux-3.13.0/fs/namei.c:2482
  MY_PRINTK(get_current()->comm);
     d82:	je     db0 <lock_rename+0x70>
/home/lookfiresu/Desktop/my_linux-3.13.0/fs/namei.c:2483
	int error = may_create(dir, dentry);
     d84:	mov    0x30(%r12),%rdi
     d89:	add    $0xa8,%rdi
     d90:	callq  d95 <lock_rename+0x55>
/home/lookfiresu/Desktop/my_linux-3.13.0/fs/namei.c:2484
	if (error)
     d95:	mov    0x30(%rbx),%rdi
     d99:	add    $0xa8,%rdi
     da0:	callq  da5 <lock_rename+0x65>
/home/lookfiresu/Desktop/my_linux-3.13.0/fs/namei.c:2485
		return error;
     da5:	mov    %r13,%rax
/home/lookfiresu/Desktop/my_linux-3.13.0/fs/namei.c:2498
    error = security_inode_create(dir, dentry, mode);
  else
    error = 0;
	if (error)
		return error;
	error = dir->i_op->create(dir, dentry, mode, want_excl);
     da8:	pop    %rbx
     da9:	pop    %r12
     dab:	pop    %r13
     dad:	pop    %rbp
     dae:	retq   
     daf:	nop
/home/lookfiresu/Desktop/my_linux-3.13.0/fs/namei.c:2488
	int error = may_create(dir, dentry);
	if (error)
		return error;

	if (!dir->i_op->create)
		return -EACCES;	/* shouldn't it be ENOSYS? */
     db0:	mov    %rbx,%rdi
     db3:	mov    %r12,%rsi
     db6:	callq  dbb <lock_rename+0x7b>
/home/lookfiresu/Desktop/my_linux-3.13.0/fs/namei.c:2490
	mode &= S_IALLUGO;
	mode |= S_IFREG;
     dbb:	mov    0x30(%rbx),%rdi
/home/lookfiresu/Desktop/my_linux-3.13.0/fs/namei.c:2488
	int error = may_create(dir, dentry);
	if (error)
		return error;

	if (!dir->i_op->create)
		return -EACCES;	/* shouldn't it be ENOSYS? */
     dbf:	mov    %rax,%r13
/home/lookfiresu/Desktop/my_linux-3.13.0/fs/namei.c:2490
	mode &= S_IALLUGO;
	mode |= S_IFREG;
     dc2:	add    $0xa8,%rdi
/home/lookfiresu/Desktop/my_linux-3.13.0/fs/namei.c:2489
	if (error)
		return error;

	if (!dir->i_op->create)
		return -EACCES;	/* shouldn't it be ENOSYS? */
	mode &= S_IALLUGO;
     dc9:	test   %rax,%rax
     dcc:	je     e04 <lock_rename+0xc4>
/home/lookfiresu/Desktop/my_linux-3.13.0/fs/namei.c:2490
	mode |= S_IFREG;
     dce:	callq  dd3 <lock_rename+0x93>
/home/lookfiresu/Desktop/my_linux-3.13.0/fs/namei.c:2491
	// error = security_inode_create(dir, dentry, mode);
     dd3:	mov    0x30(%r12),%rdi
     dd8:	add    $0xa8,%rdi
     ddf:	callq  de4 <lock_rename+0xa4>
/home/lookfiresu/Desktop/my_linux-3.13.0/fs/namei.c:2498
    error = security_inode_create(dir, dentry, mode);
  else
    error = 0;
	if (error)
		return error;
	error = dir->i_op->create(dir, dentry, mode, want_excl);
     de4:	pop    %rbx
     de5:	pop    %r12
/home/lookfiresu/Desktop/my_linux-3.13.0/fs/namei.c:2492
	if (!dir->i_op->create)
		return -EACCES;	/* shouldn't it be ENOSYS? */
	mode &= S_IALLUGO;
	mode |= S_IFREG;
	// error = security_inode_create(dir, dentry, mode);
  if (my_strcmp(get_current()->comm, "fs_kthread") != 0)
     de7:	mov    %r13,%rax
/home/lookfiresu/Desktop/my_linux-3.13.0/fs/namei.c:2498
    error = security_inode_create(dir, dentry, mode);
  else
    error = 0;
	if (error)
		return error;
	error = dir->i_op->create(dir, dentry, mode, want_excl);
     dea:	pop    %r13
     dec:	pop    %rbp
     ded:	retq   
     dee:	xchg   %ax,%ax
/home/lookfiresu/Desktop/my_linux-3.13.0/fs/namei.c:2475

void unlock_rename(struct dentry *p1, struct dentry *p2)
{
	mutex_unlock(&p1->d_inode->i_mutex);
	if (p1 != p2) {
		mutex_unlock(&p2->d_inode->i_mutex);
     df0:	mov    0x30(%rdi),%rdi
     df4:	add    $0xa8,%rdi
     dfb:	callq  e00 <lock_rename+0xc0>
/home/lookfiresu/Desktop/my_linux-3.13.0/fs/namei.c:2476
		mutex_unlock(&p1->d_inode->i_sb->s_vfs_rename_mutex);
     e00:	xor    %eax,%eax
     e02:	jmp    da8 <lock_rename+0x68>
/home/lookfiresu/Desktop/my_linux-3.13.0/fs/namei.c:2495
	mode |= S_IFREG;
	// error = security_inode_create(dir, dentry, mode);
  if (my_strcmp(get_current()->comm, "fs_kthread") != 0)
    error = security_inode_create(dir, dentry, mode);
  else
    error = 0;
     e04:	callq  e09 <lock_rename+0xc9>
/home/lookfiresu/Desktop/my_linux-3.13.0/fs/namei.c:2496
	if (error)
     e09:	mov    0x30(%r12),%rdi
     e0e:	add    $0xa8,%rdi
     e15:	callq  e1a <lock_rename+0xda>
     e1a:	xor    %eax,%eax
     e1c:	jmp    da8 <lock_rename+0x68>
     e1e:	xchg   %ax,%ax

0000000000000e20 <generic_permission>:
generic_permission():
/home/lookfiresu/Desktop/my_linux-3.13.0/fs/namei.c:327
 * It would then be called again in ref-walk mode.
 */
int generic_permission(struct inode *inode, int mask)
{
	int ret;

     e20:	callq  e25 <generic_permission+0x5>
     e25:	push   %rbp
acl_permission_check():
/home/lookfiresu/Desktop/my_linux-3.13.0/fs/namei.c:291
{
	unsigned int mode = inode->i_mode;

	if (likely(uid_eq(current_fsuid(), inode->i_uid)))
		mode >>= 6;
	else {
     e26:	mov    $0x0,%rax
get_current():
/home/lookfiresu/Desktop/my_linux-3.13.0/arch/x86/include/asm/current.h:19

DECLARE_PER_CPU(struct task_struct *, current_task);

static __always_inline struct task_struct *get_current(void)
{
	return this_cpu_read_stable(current_task);
     e2d:	mov    %gs:0x0,%rcx
generic_permission():
/home/lookfiresu/Desktop/my_linux-3.13.0/fs/namei.c:327
 * It would then be called again in ref-walk mode.
 */
int generic_permission(struct inode *inode, int mask)
{
	int ret;

     e36:	mov    %rsp,%rbp
     e39:	push   %r15
acl_permission_check():
/home/lookfiresu/Desktop/my_linux-3.13.0/fs/namei.c:291
{
	unsigned int mode = inode->i_mode;

	if (likely(uid_eq(current_fsuid(), inode->i_uid)))
		mode >>= 6;
	else {
     e3b:	add    $0x4a8,%rcx
generic_permission():
/home/lookfiresu/Desktop/my_linux-3.13.0/fs/namei.c:327
 * It would then be called again in ref-walk mode.
 */
int generic_permission(struct inode *inode, int mask)
{
	int ret;

     e42:	push   %r14
     e44:	mov    %esi,%r14d
     e47:	push   %r13
     e49:	push   %r12
     e4b:	mov    %rdi,%r12
     e4e:	push   %rbx
acl_permission_check():
/home/lookfiresu/Desktop/my_linux-3.13.0/fs/namei.c:289
 */
static int acl_permission_check(struct inode *inode, int mask)
{
	unsigned int mode = inode->i_mode;

	if (likely(uid_eq(current_fsuid(), inode->i_uid)))
     e4f:	movzwl (%rdi),%edx
     e52:	movzwl %dx,%ebx
     e55:	jmp    e65 <generic_permission+0x45>
     e57:	nopw   0x0(%rax,%rax,1)
my_strcmp_base():
/home/lookfiresu/Desktop/my_linux-3.13.0/arch/x86/include/asm/current.h:30
	while (1) {
		c1 = *cs++;
		c2 = *ct++;
		if (c1 != c2)
			return c1 < c2 ? -1 : 1;
		if (!c1)
     e60:	test   %r8b,%r8b
     e63:	je     ec0 <generic_permission+0xa0>
/home/lookfiresu/Desktop/my_linux-3.13.0/arch/x86/include/asm/current.h:26

static int my_strcmp_base(const char *cs, const char *ct) {
	unsigned char c1, c2;

	while (1) {
		c1 = *cs++;
     e65:	add    $0x1,%rcx
     e69:	movzbl -0x1(%rcx),%r8d
/home/lookfiresu/Desktop/my_linux-3.13.0/arch/x86/include/asm/current.h:27
		c2 = *ct++;
     e6e:	add    $0x1,%rax
/home/lookfiresu/Desktop/my_linux-3.13.0/arch/x86/include/asm/current.h:28
		if (c1 != c2)
     e72:	cmp    -0x1(%rax),%r8b
     e76:	je     e60 <generic_permission+0x40>
acl_permission_check():
/home/lookfiresu/Desktop/my_linux-3.13.0/fs/namei.c:291
		mode >>= 6;
	else {
     e78:	mov    %gs:0x0,%rax
     e81:	mov    0x4a0(%rax),%rax
     e88:	mov    0x4(%r12),%esi
     e8d:	cmp    %esi,0x1c(%rax)
     e90:	jne    fcb <generic_permission+0x1ab>
/home/lookfiresu/Desktop/my_linux-3.13.0/fs/namei.c:292
		if (IS_POSIXACL(inode) && (mode & S_IRWXG)) {
     e96:	shr    $0x6,%ebx
/home/lookfiresu/Desktop/my_linux-3.13.0/fs/namei.c:307
	/*
	 * If the DACs are ok we don't need any capability check.
	 */
	if ((mask & ~mode & (MAY_READ | MAY_WRITE | MAY_EXEC)) == 0)
		return 0;
	return -EACCES;
     e99:	mov    %r14d,%eax
     e9c:	not    %ebx
     e9e:	and    $0x7,%eax
     ea1:	test   %ebx,%eax
     ea3:	jne    f30 <generic_permission+0x110>
generic_permission():
/home/lookfiresu/Desktop/my_linux-3.13.0/fs/namei.c:340
	if (S_ISDIR(inode->i_mode)) {
		/* DACs are overridable for directories */
		if (inode_capable(inode, CAP_DAC_OVERRIDE))
			return 0;
		if (!(mask & MAY_WRITE))
			if (inode_capable(inode, CAP_DAC_READ_SEARCH))
     ea9:	xor    %r13d,%r13d
/home/lookfiresu/Desktop/my_linux-3.13.0/fs/namei.c:364
			return 0;

	return -EACCES;
}

/*
     eac:	pop    %rbx
     ead:	pop    %r12
     eaf:	mov    %r13d,%eax
     eb2:	pop    %r13
     eb4:	pop    %r14
     eb6:	pop    %r15
     eb8:	pop    %rbp
     eb9:	retq   
     eba:	nopw   0x0(%rax,%rax,1)
acl_permission_check():
/home/lookfiresu/Desktop/my_linux-3.13.0/fs/namei.c:291
{
	unsigned int mode = inode->i_mode;

	if (likely(uid_eq(current_fsuid(), inode->i_uid)))
		mode >>= 6;
	else {
     ec0:	cmpb   $0x0,0x0(%rip)        # ec7 <generic_permission+0xa7>
     ec7:	mov    0x0(%rip),%rax        # ece <generic_permission+0xae>
     ece:	jne    e81 <generic_permission+0x61>
     ed0:	jmp    e78 <generic_permission+0x58>
check_acl():
/home/lookfiresu/Desktop/my_linux-3.13.0/fs/namei.c:241
#ifdef CONFIG_FS_POSIX_ACL
	struct posix_acl *acl;

	if (mask & MAY_NOT_BLOCK) {
		// acl = get_cached_acl_rcu(inode, ACL_TYPE_ACCESS);
		acl = msg_get_cached_acl_rcu(inode, ACL_TYPE_ACCESS, msqid_from_fs_to_kernel, msqid_from_kernel_to_fs);
     ed2:	test   $0x80,%r14b
     ed6:	je     ff8 <generic_permission+0x1d8>
/home/lookfiresu/Desktop/my_linux-3.13.0/fs/namei.c:243
	        if (!acl)
	                return -EAGAIN;
     edc:	mov    0x0(%rip),%ecx        # ee2 <generic_permission+0xc2>
     ee2:	mov    0x0(%rip),%edx        # ee8 <generic_permission+0xc8>
     ee8:	mov    $0x8000,%esi
     eed:	mov    %r12,%rdi
     ef0:	callq  ef5 <generic_permission+0xd5>
/home/lookfiresu/Desktop/my_linux-3.13.0/fs/namei.c:244
		/* no ->get_acl() calls in RCU mode... */
     ef5:	test   %rax,%rax
     ef8:	je     fdf <generic_permission+0x1bf>
/home/lookfiresu/Desktop/my_linux-3.13.0/fs/namei.c:247
		if (acl == ACL_NOT_CACHED)
			return -ECHILD;
	        return posix_acl_permission(inode, acl, mask & ~MAY_NOT_BLOCK);
     efe:	cmp    $0xffffffffffffffff,%rax
     f02:	je     1091 <generic_permission+0x271>
/home/lookfiresu/Desktop/my_linux-3.13.0/fs/namei.c:249
	}

     f08:	mov    %r14d,%edx
     f0b:	mov    %rax,%rsi
     f0e:	mov    %r12,%rdi
     f11:	and    $0x7f,%dl
     f14:	callq  f19 <generic_permission+0xf9>
     f19:	mov    %eax,%r13d
acl_permission_check():
/home/lookfiresu/Desktop/my_linux-3.13.0/fs/namei.c:296
	else {
		if (IS_POSIXACL(inode) && (mode & S_IRWXG)) {
			int error = check_acl(inode, mask);
			if (error != -EAGAIN)
				return error;
		}
     f1c:	cmp    $0xfffffff5,%r13d
     f20:	je     fdf <generic_permission+0x1bf>
generic_permission():
/home/lookfiresu/Desktop/my_linux-3.13.0/fs/namei.c:334
	 * Do the basic permission checks.
	 */
	ret = acl_permission_check(inode, mask);
	if (ret != -EACCES)
		return ret;

     f26:	cmp    $0xfffffff3,%r13d
     f2a:	jne    eac <generic_permission+0x8c>
/home/lookfiresu/Desktop/my_linux-3.13.0/fs/namei.c:337
	if (S_ISDIR(inode->i_mode)) {
		/* DACs are overridable for directories */
		if (inode_capable(inode, CAP_DAC_OVERRIDE))
     f30:	movzwl (%r12),%eax
     f35:	mov    %eax,%edx
     f37:	and    $0xf000,%dx
     f3c:	cmp    $0x4000,%dx
     f41:	je     f8c <generic_permission+0x16c>
/home/lookfiresu/Desktop/my_linux-3.13.0/fs/namei.c:351
	 * Executable DACs are overridable when there is
	 * at least one exec bit set.
	 */
	if (!(mask & MAY_EXEC) || (inode->i_mode & S_IXUGO))
		if (inode_capable(inode, CAP_DAC_OVERRIDE))
			return 0;
     f43:	test   $0x1,%r14b
     f47:	je     f4d <generic_permission+0x12d>
/home/lookfiresu/Desktop/my_linux-3.13.0/fs/namei.c:351 (discriminator 1)
     f49:	test   $0x49,%al
     f4b:	je     f62 <generic_permission+0x142>
/home/lookfiresu/Desktop/my_linux-3.13.0/fs/namei.c:352

     f4d:	mov    $0x1,%esi
     f52:	mov    %r12,%rdi
     f55:	callq  f5a <generic_permission+0x13a>
     f5a:	test   %al,%al
     f5c:	jne    ea9 <generic_permission+0x89>
/home/lookfiresu/Desktop/my_linux-3.13.0/fs/namei.c:358
	/*
	 * Searching includes executable on directories, else just read.
	 */
	mask &= MAY_READ | MAY_WRITE | MAY_EXEC;
	if (mask == MAY_READ)
		if (inode_capable(inode, CAP_DAC_READ_SEARCH))
     f62:	and    $0x7,%r14d
/home/lookfiresu/Desktop/my_linux-3.13.0/fs/namei.c:359
			return 0;
     f66:	cmp    $0x4,%r14d
     f6a:	jne    f81 <generic_permission+0x161>
/home/lookfiresu/Desktop/my_linux-3.13.0/fs/namei.c:360

     f6c:	mov    $0x2,%esi
     f71:	mov    %r12,%rdi
     f74:	callq  f79 <generic_permission+0x159>
     f79:	test   %al,%al
     f7b:	jne    ea9 <generic_permission+0x89>
/home/lookfiresu/Desktop/my_linux-3.13.0/fs/namei.c:363
	return -EACCES;
}

     f81:	mov    $0xfffffff3,%r13d
     f87:	jmpq   eac <generic_permission+0x8c>
/home/lookfiresu/Desktop/my_linux-3.13.0/fs/namei.c:339

	if (S_ISDIR(inode->i_mode)) {
		/* DACs are overridable for directories */
		if (inode_capable(inode, CAP_DAC_OVERRIDE))
			return 0;
		if (!(mask & MAY_WRITE))
     f8c:	mov    $0x1,%esi
     f91:	mov    %r12,%rdi
     f94:	callq  f99 <generic_permission+0x179>
     f99:	test   %al,%al
     f9b:	jne    ea9 <generic_permission+0x89>
/home/lookfiresu/Desktop/my_linux-3.13.0/fs/namei.c:341
			if (inode_capable(inode, CAP_DAC_READ_SEARCH))
				return 0;
     fa1:	and    $0x2,%r14d
/home/lookfiresu/Desktop/my_linux-3.13.0/fs/namei.c:344
		return -EACCES;
	}
	/*
     fa5:	mov    $0xfffffff3,%r13d
/home/lookfiresu/Desktop/my_linux-3.13.0/fs/namei.c:341
		/* DACs are overridable for directories */
		if (inode_capable(inode, CAP_DAC_OVERRIDE))
			return 0;
		if (!(mask & MAY_WRITE))
			if (inode_capable(inode, CAP_DAC_READ_SEARCH))
				return 0;
     fab:	jne    eac <generic_permission+0x8c>
/home/lookfiresu/Desktop/my_linux-3.13.0/fs/namei.c:342
		return -EACCES;
     fb1:	mov    $0x2,%esi
     fb6:	mov    %r12,%rdi
     fb9:	callq  fbe <generic_permission+0x19e>
     fbe:	test   %al,%al
     fc0:	jne    ea9 <generic_permission+0x89>
     fc6:	jmpq   eac <generic_permission+0x8c>
acl_permission_check():
/home/lookfiresu/Desktop/my_linux-3.13.0/fs/namei.c:294
	if (likely(uid_eq(current_fsuid(), inode->i_uid)))
		mode >>= 6;
	else {
		if (IS_POSIXACL(inode) && (mode & S_IRWXG)) {
			int error = check_acl(inode, mask);
			if (error != -EAGAIN)
     fcb:	mov    0x28(%r12),%rax
     fd0:	testb  $0x1,0x52(%rax)
     fd4:	je     fdf <generic_permission+0x1bf>
     fd6:	and    $0x38,%edx
     fd9:	jne    ed2 <generic_permission+0xb2>
/home/lookfiresu/Desktop/my_linux-3.13.0/fs/namei.c:300
				return error;
		}

		if (in_group_p(inode->i_gid))
			mode >>= 3;
	}
     fdf:	mov    0x8(%r12),%edi
     fe4:	callq  fe9 <generic_permission+0x1c9>
/home/lookfiresu/Desktop/my_linux-3.13.0/fs/namei.c:301

     fe9:	mov    %ebx,%edx
     feb:	shr    $0x3,%edx
     fee:	test   %eax,%eax
     ff0:	cmovne %edx,%ebx
     ff3:	jmpq   e99 <generic_permission+0x79>
get_cached_acl():
/home/lookfiresu/Desktop/my_linux-3.13.0/include/linux/posix_acl.h:115
}

static inline struct posix_acl *get_cached_acl(struct inode *inode, int type)
{
	struct posix_acl **p = acl_by_type(inode, type);
	struct posix_acl *acl = ACCESS_ONCE(*p);
     ff8:	mov    0x10(%r12),%rax
/home/lookfiresu/Desktop/my_linux-3.13.0/include/linux/posix_acl.h:116
	if (acl) {
     ffd:	test   %rax,%rax
    1000:	je     fdf <generic_permission+0x1bf>
spin_lock():
/home/lookfiresu/Desktop/my_linux-3.13.0/include/linux/spinlock.h:293
	raw_spin_lock_init(&(_lock)->rlock);		\
} while (0)

static inline void spin_lock(spinlock_t *lock)
{
	raw_spin_lock(&lock->rlock);
    1002:	lea    0x88(%r12),%r15
    100a:	mov    %r15,%rdi
    100d:	callq  1012 <generic_permission+0x1f2>
get_cached_acl():
/home/lookfiresu/Desktop/my_linux-3.13.0/include/linux/posix_acl.h:118
		spin_lock(&inode->i_lock);
		acl = *p;
    1012:	mov    0x10(%r12),%r13
/home/lookfiresu/Desktop/my_linux-3.13.0/include/linux/posix_acl.h:119
		if (acl != ACL_NOT_CACHED)
    1017:	cmp    $0xffffffffffffffff,%r13
    101b:	je     1061 <generic_permission+0x241>
posix_acl_dup():
/home/lookfiresu/Desktop/my_linux-3.13.0/include/linux/posix_acl.h:68
 * Duplicate an ACL handle.
 */
static inline struct posix_acl *
posix_acl_dup(struct posix_acl *acl)
{
	if (acl)
    101d:	test   %r13,%r13
    1020:	je     1027 <generic_permission+0x207>
atomic_inc():
/home/lookfiresu/Desktop/my_linux-3.13.0/arch/x86/include/asm/atomic.h:91
 *
 * Atomically increments @v by 1.
 */
static inline void atomic_inc(atomic_t *v)
{
	asm volatile(LOCK_PREFIX "incl %0"
    1022:	lock incl 0x0(%r13)
spin_unlock():
/home/lookfiresu/Desktop/my_linux-3.13.0/include/linux/spinlock.h:333
	raw_spin_lock_irqsave_nested(spinlock_check(lock), flags, subclass); \
} while (0)

static inline void spin_unlock(spinlock_t *lock)
{
	raw_spin_unlock(&lock->rlock);
    1027:	mov    %r15,%rdi
    102a:	callq  102f <generic_permission+0x20f>
check_acl():
/home/lookfiresu/Desktop/my_linux-3.13.0/fs/namei.c:273
		}
	}

	if (acl) {
	        int error = posix_acl_permission(inode, acl, mask);
	        // posix_acl_release(acl);
    102f:	test   %r13,%r13
    1032:	je     fdf <generic_permission+0x1bf>
/home/lookfiresu/Desktop/my_linux-3.13.0/fs/namei.c:274
	        msg_posix_acl_release(acl, msqid_from_fs_to_kernel, msqid_from_kernel_to_fs);
    1034:	mov    %r13,%rsi
    1037:	mov    %r14d,%edx
    103a:	mov    %r12,%rdi
    103d:	callq  1042 <generic_permission+0x222>
/home/lookfiresu/Desktop/my_linux-3.13.0/fs/namei.c:276
	        return error;
	}
    1042:	mov    0x0(%rip),%edx        # 1048 <generic_permission+0x228>
    1048:	mov    0x0(%rip),%esi        # 104e <generic_permission+0x22e>
/home/lookfiresu/Desktop/my_linux-3.13.0/fs/namei.c:274
	}

	if (acl) {
	        int error = posix_acl_permission(inode, acl, mask);
	        // posix_acl_release(acl);
	        msg_posix_acl_release(acl, msqid_from_fs_to_kernel, msqid_from_kernel_to_fs);
    104e:	mov    %eax,%r15d
/home/lookfiresu/Desktop/my_linux-3.13.0/fs/namei.c:276
	        return error;
	}
    1051:	mov    %r13,%rdi
/home/lookfiresu/Desktop/my_linux-3.13.0/fs/namei.c:277
#endif
    1054:	mov    %r15d,%r13d
/home/lookfiresu/Desktop/my_linux-3.13.0/fs/namei.c:276
	if (acl) {
	        int error = posix_acl_permission(inode, acl, mask);
	        // posix_acl_release(acl);
	        msg_posix_acl_release(acl, msqid_from_fs_to_kernel, msqid_from_kernel_to_fs);
	        return error;
	}
    1057:	callq  105c <generic_permission+0x23c>
    105c:	jmpq   f1c <generic_permission+0xfc>
spin_unlock():
/home/lookfiresu/Desktop/my_linux-3.13.0/include/linux/spinlock.h:333
    1061:	mov    %r15,%rdi
    1064:	callq  1069 <generic_permission+0x249>
check_acl():
/home/lookfiresu/Desktop/my_linux-3.13.0/fs/namei.c:263
	 * just create the negative cache entry.
	 */
	if (acl == ACL_NOT_CACHED) {
	        if (inode->i_op->get_acl) {
			acl = inode->i_op->get_acl(inode, ACL_TYPE_ACCESS);
			if (IS_ERR(acl))
    1069:	mov    0x20(%r12),%rax
    106e:	mov    0x18(%rax),%rax
    1072:	test   %rax,%rax
    1075:	je     109c <generic_permission+0x27c>
/home/lookfiresu/Desktop/my_linux-3.13.0/fs/namei.c:264
				return PTR_ERR(acl);
    1077:	mov    $0x8000,%esi
    107c:	mov    %r12,%rdi
    107f:	callq  *%rax
/home/lookfiresu/Desktop/my_linux-3.13.0/fs/namei.c:265
		} else {
    1081:	cmp    $0xfffffffffffff000,%rax
/home/lookfiresu/Desktop/my_linux-3.13.0/fs/namei.c:264
	 */
	if (acl == ACL_NOT_CACHED) {
	        if (inode->i_op->get_acl) {
			acl = inode->i_op->get_acl(inode, ACL_TYPE_ACCESS);
			if (IS_ERR(acl))
				return PTR_ERR(acl);
    1087:	mov    %rax,%r13
/home/lookfiresu/Desktop/my_linux-3.13.0/fs/namei.c:265
		} else {
    108a:	jbe    102f <generic_permission+0x20f>
    108c:	jmpq   f1c <generic_permission+0xfc>
/home/lookfiresu/Desktop/my_linux-3.13.0/fs/namei.c:248
	                return -EAGAIN;
		/* no ->get_acl() calls in RCU mode... */
		if (acl == ACL_NOT_CACHED)
			return -ECHILD;
	        return posix_acl_permission(inode, acl, mask & ~MAY_NOT_BLOCK);
	}
    1091:	mov    $0xfffffff6,%r13d
    1097:	jmpq   eac <generic_permission+0x8c>
spin_lock():
/home/lookfiresu/Desktop/my_linux-3.13.0/include/linux/spinlock.h:293
	raw_spin_lock_init(&(_lock)->rlock);		\
} while (0)

static inline void spin_lock(spinlock_t *lock)
{
	raw_spin_lock(&lock->rlock);
    109c:	mov    %r15,%rdi
    109f:	callq  10a4 <generic_permission+0x284>
set_cached_acl():
/home/lookfiresu/Desktop/my_linux-3.13.0/include/linux/posix_acl.h:139
				  struct posix_acl *acl)
{
	struct posix_acl **p = acl_by_type(inode, type);
	struct posix_acl *old;
	spin_lock(&inode->i_lock);
	old = *p;
    10a4:	mov    0x10(%r12),%r13
/home/lookfiresu/Desktop/my_linux-3.13.0/include/linux/posix_acl.h:140
	rcu_assign_pointer(*p, posix_acl_dup(acl));
    10a9:	movq   $0x0,0x10(%r12)
spin_unlock():
/home/lookfiresu/Desktop/my_linux-3.13.0/include/linux/spinlock.h:333
	raw_spin_lock_irqsave_nested(spinlock_check(lock), flags, subclass); \
} while (0)

static inline void spin_unlock(spinlock_t *lock)
{
	raw_spin_unlock(&lock->rlock);
    10b2:	mov    %r15,%rdi
    10b5:	callq  10ba <generic_permission+0x29a>
set_cached_acl():
/home/lookfiresu/Desktop/my_linux-3.13.0/include/linux/posix_acl.h:142
	spin_unlock(&inode->i_lock);
	if (old != ACL_NOT_CACHED)
    10ba:	cmp    $0xffffffffffffffff,%r13
    10be:	je     fdf <generic_permission+0x1bf>
get_current():
/home/lookfiresu/Desktop/my_linux-3.13.0/arch/x86/include/asm/current.h:19

DECLARE_PER_CPU(struct task_struct *, current_task);

static __always_inline struct task_struct *get_current(void)
{
	return this_cpu_read_stable(current_task);
    10c4:	mov    %gs:0x0,%rdx
posix_acl_release():
/home/lookfiresu/Desktop/my_linux-3.13.0/include/linux/posix_acl.h:79
 * Free an ACL handle.
 */
static inline void
posix_acl_release(struct posix_acl *acl)
{
  MY_PRINTK(get_current()->comm);
    10cd:	mov    $0x0,%rax
    10d4:	add    $0x4a8,%rdx
my_strcmp():
/home/lookfiresu/Desktop/my_linux-3.13.0/include/linux/interactive_design.h:11

static int my_strcmp(const char *cs, const char *ct) {
	unsigned char c1, c2;

	while (1) {
		c1 = *cs++;
    10db:	add    $0x1,%rdx
    10df:	movzbl -0x1(%rdx),%ecx
/home/lookfiresu/Desktop/my_linux-3.13.0/include/linux/interactive_design.h:12
		c2 = *ct++;
    10e3:	add    $0x1,%rax
/home/lookfiresu/Desktop/my_linux-3.13.0/include/linux/interactive_design.h:13
		if (c1 != c2)
    10e7:	cmp    -0x1(%rax),%cl
    10ea:	jne    112a <generic_permission+0x30a>
/home/lookfiresu/Desktop/my_linux-3.13.0/include/linux/interactive_design.h:15
			return c1 < c2 ? -1 : 1;
		if (!c1)
    10ec:	test   %cl,%cl
    10ee:	jne    10db <generic_permission+0x2bb>
get_current():
/home/lookfiresu/Desktop/my_linux-3.13.0/arch/x86/include/asm/current.h:19
    10f0:	mov    %gs:0x0,%rdx
posix_acl_release():
/home/lookfiresu/Desktop/my_linux-3.13.0/include/linux/posix_acl.h:79
    10f9:	mov    $0x0,%rsi
    1100:	add    $0x4a8,%rdx
    1107:	mov    $0x0,%rdi
    110e:	xor    %eax,%eax
    1110:	callq  1115 <generic_permission+0x2f5>
/home/lookfiresu/Desktop/my_linux-3.13.0/include/linux/posix_acl.h:80
	if (acl && atomic_dec_and_test(&acl->a_refcount))
    1115:	test   %r13,%r13
    1118:	je     fdf <generic_permission+0x1bf>
atomic_dec_and_test():
/home/lookfiresu/Desktop/my_linux-3.13.0/arch/x86/include/asm/atomic.h:117
 * returns true if the result is 0, or false for all other
 * cases.
 */
static inline int atomic_dec_and_test(atomic_t *v)
{
	GEN_UNARY_RMWcc(LOCK_PREFIX "decl", v->counter, "%0", "e");
    111e:	lock decl 0x0(%r13)
    1123:	je     1158 <generic_permission+0x338>
    1125:	jmpq   fdf <generic_permission+0x1bf>
get_current():
/home/lookfiresu/Desktop/my_linux-3.13.0/arch/x86/include/asm/current.h:19
    112a:	mov    %gs:0x0,%rdx
posix_acl_release():
/home/lookfiresu/Desktop/my_linux-3.13.0/include/linux/posix_acl.h:79
 * Free an ACL handle.
 */
static inline void
posix_acl_release(struct posix_acl *acl)
{
  MY_PRINTK(get_current()->comm);
    1133:	mov    $0x0,%rax
    113a:	add    $0x4a8,%rdx
my_strcmp():
/home/lookfiresu/Desktop/my_linux-3.13.0/include/linux/interactive_design.h:11

static int my_strcmp(const char *cs, const char *ct) {
	unsigned char c1, c2;

	while (1) {
		c1 = *cs++;
    1141:	add    $0x1,%rdx
    1145:	movzbl -0x1(%rdx),%ecx
/home/lookfiresu/Desktop/my_linux-3.13.0/include/linux/interactive_design.h:12
		c2 = *ct++;
    1149:	add    $0x1,%rax
/home/lookfiresu/Desktop/my_linux-3.13.0/include/linux/interactive_design.h:13
		if (c1 != c2)
    114d:	cmp    -0x1(%rax),%cl
    1150:	jne    1115 <generic_permission+0x2f5>
/home/lookfiresu/Desktop/my_linux-3.13.0/include/linux/interactive_design.h:15
			return c1 < c2 ? -1 : 1;
		if (!c1)
    1152:	test   %cl,%cl
    1154:	jne    1141 <generic_permission+0x321>
    1156:	jmp    10f0 <generic_permission+0x2d0>
posix_acl_release():
/home/lookfiresu/Desktop/my_linux-3.13.0/include/linux/posix_acl.h:81
	if (acl && atomic_dec_and_test(&acl->a_refcount))
		kfree_rcu(acl, a_rcu);
    1158:	xor    %esi,%esi
    115a:	mov    %r13,%rdi
    115d:	callq  1162 <generic_permission+0x342>
    1162:	jmpq   fdf <generic_permission+0x1bf>
generic_permission():
    1167:	nopw   0x0(%rax,%rax,1)

0000000000001170 <page_getlink.isra.21.constprop.30>:
page_getlink():
/home/lookfiresu/Desktop/my_linux-3.13.0/fs/namei.c:4364
	struct address_space *mapping = inode->i_mapping;
	struct page *page;
	void *fsdata;
	int err;
	char *kaddr;
	unsigned int flags = AOP_FLAG_UNINTERRUPTIBLE;
    1170:	callq  1175 <page_getlink.isra.21.constprop.30+0x5>
    1175:	push   %rbp
get_current():
/home/lookfiresu/Desktop/my_linux-3.13.0/arch/x86/include/asm/current.h:19
    1176:	mov    %gs:0x0,%rdx
page_getlink():
/home/lookfiresu/Desktop/my_linux-3.13.0/fs/namei.c:4364
    117f:	mov    %rsp,%rbp
    1182:	push   %r13
read_mapping_page():
/home/lookfiresu/Desktop/my_linux-3.13.0/include/linux/pagemap.h:294
}

static inline struct page *read_mapping_page(struct address_space *mapping,
				pgoff_t index, void *data)
{
  MY_PRINTK(get_current()->comm);
    1184:	add    $0x4a8,%rdx
page_getlink():
/home/lookfiresu/Desktop/my_linux-3.13.0/fs/namei.c:4364
    118b:	push   %r12
    118d:	mov    %rsi,%r12
    1190:	push   %rbx
/home/lookfiresu/Desktop/my_linux-3.13.0/fs/namei.c:4368
	if (nofs)
		flags |= AOP_FLAG_NOFS;

retry:
    1191:	mov    (%rdi),%rax
/home/lookfiresu/Desktop/my_linux-3.13.0/fs/namei.c:4364
	struct address_space *mapping = inode->i_mapping;
	struct page *page;
	void *fsdata;
	int err;
	char *kaddr;
	unsigned int flags = AOP_FLAG_UNINTERRUPTIBLE;
    1194:	mov    %rdi,%rbx
/home/lookfiresu/Desktop/my_linux-3.13.0/fs/namei.c:4368
	if (nofs)
		flags |= AOP_FLAG_NOFS;

retry:
    1197:	mov    0x30(%rax),%r13
read_mapping_page():
/home/lookfiresu/Desktop/my_linux-3.13.0/include/linux/pagemap.h:294
    119b:	mov    $0x0,%rax
    11a2:	jmp    11b0 <page_getlink.isra.21.constprop.30+0x40>
    11a4:	nopl   0x0(%rax)
my_strcmp():
/home/lookfiresu/Desktop/my_linux-3.13.0/include/linux/interactive_design.h:15
    11a8:	test   %cl,%cl
    11aa:	je     1260 <page_getlink.isra.21.constprop.30+0xf0>
/home/lookfiresu/Desktop/my_linux-3.13.0/include/linux/interactive_design.h:11

static int my_strcmp(const char *cs, const char *ct) {
	unsigned char c1, c2;

	while (1) {
		c1 = *cs++;
    11b0:	add    $0x1,%rdx
    11b4:	movzbl -0x1(%rdx),%ecx
/home/lookfiresu/Desktop/my_linux-3.13.0/include/linux/interactive_design.h:12
		c2 = *ct++;
    11b8:	add    $0x1,%rax
/home/lookfiresu/Desktop/my_linux-3.13.0/include/linux/interactive_design.h:13
		if (c1 != c2)
    11bc:	cmp    -0x1(%rax),%cl
    11bf:	je     11a8 <page_getlink.isra.21.constprop.30+0x38>
get_current():
/home/lookfiresu/Desktop/my_linux-3.13.0/arch/x86/include/asm/current.h:19
    11c1:	mov    %gs:0x0,%rdx
read_mapping_page():
/home/lookfiresu/Desktop/my_linux-3.13.0/include/linux/pagemap.h:294
    11ca:	mov    $0x0,%rax
    11d1:	add    $0x4a8,%rdx
    11d8:	jmp    11e4 <page_getlink.isra.21.constprop.30+0x74>
    11da:	nopw   0x0(%rax,%rax,1)
my_strcmp():
/home/lookfiresu/Desktop/my_linux-3.13.0/include/linux/interactive_design.h:15
			return c1 < c2 ? -1 : 1;
		if (!c1)
    11e0:	test   %cl,%cl
    11e2:	je     1260 <page_getlink.isra.21.constprop.30+0xf0>
/home/lookfiresu/Desktop/my_linux-3.13.0/include/linux/interactive_design.h:11

static int my_strcmp(const char *cs, const char *ct) {
	unsigned char c1, c2;

	while (1) {
		c1 = *cs++;
    11e4:	add    $0x1,%rdx
    11e8:	movzbl -0x1(%rdx),%ecx
/home/lookfiresu/Desktop/my_linux-3.13.0/include/linux/interactive_design.h:12
		c2 = *ct++;
    11ec:	add    $0x1,%rax
/home/lookfiresu/Desktop/my_linux-3.13.0/include/linux/interactive_design.h:13
		if (c1 != c2)
    11f0:	cmp    -0x1(%rax),%cl
    11f3:	je     11e0 <page_getlink.isra.21.constprop.30+0x70>
read_mapping_page():
/home/lookfiresu/Desktop/my_linux-3.13.0/include/linux/pagemap.h:295
	filler_t *filler = (filler_t *)mapping->a_ops->readpage;
    11f5:	mov    0x70(%r13),%rax
/home/lookfiresu/Desktop/my_linux-3.13.0/include/linux/pagemap.h:296
	return read_cache_page(mapping, index, filler, data);
    11f9:	xor    %ecx,%ecx
    11fb:	xor    %esi,%esi
    11fd:	mov    %r13,%rdi
    1200:	mov    0x8(%rax),%rdx
    1204:	callq  1209 <page_getlink.isra.21.constprop.30+0x99>
page_getlink():
/home/lookfiresu/Desktop/my_linux-3.13.0/fs/namei.c:4370
	err = pagecache_write_begin(NULL, mapping, 0, len-1,
				flags, &page, &fsdata);
    1209:	cmp    $0xfffffffffffff000,%rax
read_mapping_page():
/home/lookfiresu/Desktop/my_linux-3.13.0/include/linux/pagemap.h:296
    120f:	mov    %rax,%r13
page_getlink():
/home/lookfiresu/Desktop/my_linux-3.13.0/fs/namei.c:4370
    1212:	ja     1258 <page_getlink.isra.21.constprop.30+0xe8>
/home/lookfiresu/Desktop/my_linux-3.13.0/fs/namei.c:4372
	if (err)
		goto fail;
    1214:	mov    %rax,(%r12)
kmap():
/home/lookfiresu/Desktop/my_linux-3.13.0/include/linux/highmem.h:59
#define totalhigh_pages 0UL

#ifndef ARCH_HAS_KMAP
static inline void *kmap(struct page *page)
{
	might_sleep();
    1218:	callq  121d <page_getlink.isra.21.constprop.30+0xad>
lowmem_page_address():
/home/lookfiresu/Desktop/my_linux-3.13.0/include/linux/mm.h:841
    121d:	movabs $0x160000000000,%rax
page_getlink():
/home/lookfiresu/Desktop/my_linux-3.13.0/fs/namei.c:4374

	kaddr = kmap_atomic(page);
    1227:	mov    (%rbx),%rcx
nd_terminate_link():
/home/lookfiresu/Desktop/my_linux-3.13.0/include/linux/namei.h:98
}

static inline void nd_terminate_link(void *name, size_t len, size_t maxlen)
{
	((char *) name)[min(len, maxlen)] = '\0';
    122a:	mov    $0xfff,%edx
lowmem_page_address():
/home/lookfiresu/Desktop/my_linux-3.13.0/include/linux/mm.h:841
    122f:	add    %r13,%rax
    1232:	movabs $0xffff880000000000,%r13
    123c:	sar    $0x6,%rax
    1240:	shl    $0xc,%rax
    1244:	add    %r13,%rax
nd_terminate_link():
/home/lookfiresu/Desktop/my_linux-3.13.0/include/linux/namei.h:98
    1247:	cmpq   $0xfff,0x50(%rcx)
    124f:	cmovbe 0x50(%rcx),%rdx
    1254:	movb   $0x0,(%rax,%rdx,1)
page_getlink():
/home/lookfiresu/Desktop/my_linux-3.13.0/fs/namei.c:4376
	memcpy(kaddr, symname, len-1);
	kunmap_atomic(kaddr);
    1258:	pop    %rbx
    1259:	pop    %r12
    125b:	pop    %r13
    125d:	pop    %rbp
    125e:	retq   
    125f:	nop
get_current():
/home/lookfiresu/Desktop/my_linux-3.13.0/arch/x86/include/asm/current.h:19
    1260:	mov    %gs:0x0,%rdx
read_mapping_page():
/home/lookfiresu/Desktop/my_linux-3.13.0/include/linux/pagemap.h:294
}

static inline struct page *read_mapping_page(struct address_space *mapping,
				pgoff_t index, void *data)
{
  MY_PRINTK(get_current()->comm);
    1269:	mov    $0x0,%rsi
    1270:	add    $0x4a8,%rdx
    1277:	mov    $0x0,%rdi
    127e:	xor    %eax,%eax
    1280:	callq  1285 <page_getlink.isra.21.constprop.30+0x115>
    1285:	jmpq   11f5 <page_getlink.isra.21.constprop.30+0x85>
page_getlink.isra.21.constprop.30():
    128a:	nopw   0x0(%rax,%rax,1)

0000000000001290 <page_follow_link_light>:
page_follow_link_light():
/home/lookfiresu/Desktop/my_linux-3.13.0/fs/namei.c:4391
	return 0;
fail:
	return err;
}

int page_symlink(struct inode *inode, const char *symname, int len)
    1290:	callq  1295 <page_follow_link_light+0x5>
    1295:	push   %rbp
    1296:	add    $0x30,%rdi
    129a:	mov    %rsp,%rbp
    129d:	push   %rbx
    129e:	mov    %rsi,%rbx
/home/lookfiresu/Desktop/my_linux-3.13.0/fs/namei.c:4393
{
	return __page_symlink(inode, symname, len,
    12a1:	lea    -0x10(%rbp),%rsi
/home/lookfiresu/Desktop/my_linux-3.13.0/fs/namei.c:4391
	return 0;
fail:
	return err;
}

int page_symlink(struct inode *inode, const char *symname, int len)
    12a5:	sub    $0x8,%rsp
/home/lookfiresu/Desktop/my_linux-3.13.0/fs/namei.c:4392
{
    12a9:	movq   $0x0,-0x10(%rbp)
/home/lookfiresu/Desktop/my_linux-3.13.0/fs/namei.c:4393
	return __page_symlink(inode, symname, len,
    12b1:	callq  1170 <page_getlink.isra.21.constprop.30>
nd_set_link():
/home/lookfiresu/Desktop/my_linux-3.13.0/include/linux/namei.h:88

extern void nd_jump_link(struct nameidata *nd, struct path *path);

static inline void nd_set_link(struct nameidata *nd, char *path)
{
	nd->saved_names[nd->depth] = path;
    12b6:	mov    0x48(%rbx),%edx
    12b9:	mov    %rax,0x50(%rbx,%rdx,8)
page_follow_link_light():
/home/lookfiresu/Desktop/my_linux-3.13.0/fs/namei.c:4395
			!(mapping_gfp_mask(inode->i_mapping) & __GFP_FS));
}
    12be:	mov    -0x10(%rbp),%rax
    12c2:	add    $0x8,%rsp
    12c6:	pop    %rbx
    12c7:	pop    %rbp
    12c8:	retq   
    12c9:	nopl   0x0(%rax)

00000000000012d0 <page_readlink>:
page_readlink():
/home/lookfiresu/Desktop/my_linux-3.13.0/fs/namei.c:4379
	kaddr = kmap_atomic(page);
	memcpy(kaddr, symname, len-1);
	kunmap_atomic(kaddr);

	err = pagecache_write_end(NULL, mapping, 0, len-1, len-1,
							page, fsdata);
    12d0:	callq  12d5 <page_readlink+0x5>
    12d5:	push   %rbp
    12d6:	mov    %rsp,%rbp
    12d9:	push   %r13
    12db:	mov    %edx,%r13d
    12de:	push   %r12
    12e0:	mov    %rsi,%r12
/home/lookfiresu/Desktop/my_linux-3.13.0/fs/namei.c:4381
	if (err < 0)
		goto fail;
    12e3:	lea    -0x20(%rbp),%rsi
/home/lookfiresu/Desktop/my_linux-3.13.0/fs/namei.c:4379
	kaddr = kmap_atomic(page);
	memcpy(kaddr, symname, len-1);
	kunmap_atomic(kaddr);

	err = pagecache_write_end(NULL, mapping, 0, len-1, len-1,
							page, fsdata);
    12e7:	push   %rbx
    12e8:	mov    %rdi,%rbx
    12eb:	lea    0x30(%rdi),%rdi
    12ef:	sub    $0x8,%rsp
/home/lookfiresu/Desktop/my_linux-3.13.0/fs/namei.c:4380
	if (err < 0)
    12f3:	movq   $0x0,-0x20(%rbp)
/home/lookfiresu/Desktop/my_linux-3.13.0/fs/namei.c:4381
		goto fail;
    12fb:	callq  1170 <page_getlink.isra.21.constprop.30>
/home/lookfiresu/Desktop/my_linux-3.13.0/fs/namei.c:4382
	if (err < len-1)
    1300:	mov    %rbx,%rdi
    1303:	mov    %rax,%rcx
    1306:	mov    %r13d,%edx
    1309:	mov    %r12,%rsi
    130c:	callq  1311 <page_readlink+0x41>
/home/lookfiresu/Desktop/my_linux-3.13.0/fs/namei.c:4383
		goto retry;
    1311:	mov    -0x20(%rbp),%rdi
/home/lookfiresu/Desktop/my_linux-3.13.0/fs/namei.c:4382

	err = pagecache_write_end(NULL, mapping, 0, len-1, len-1,
							page, fsdata);
	if (err < 0)
		goto fail;
	if (err < len-1)
    1315:	mov    %eax,%ebx
/home/lookfiresu/Desktop/my_linux-3.13.0/fs/namei.c:4383
		goto retry;
    1317:	test   %rdi,%rdi
    131a:	je     1321 <page_readlink+0x51>
/home/lookfiresu/Desktop/my_linux-3.13.0/fs/namei.c:4385

	mark_inode_dirty(inode);
    131c:	callq  1321 <page_readlink+0x51>
/home/lookfiresu/Desktop/my_linux-3.13.0/fs/namei.c:4388
	return 0;
fail:
	return err;
    1321:	add    $0x8,%rsp
    1325:	mov    %ebx,%eax
    1327:	pop    %rbx
    1328:	pop    %r12
    132a:	pop    %r13
    132c:	pop    %rbp
    132d:	retq   
    132e:	xchg   %ax,%ax

0000000000001330 <my_strcmp.constprop.33>:
my_strcmp():
/home/lookfiresu/Desktop/my_linux-3.13.0/include/linux/interactive_design.h:7
#define _INTERACTIVE_DESIGN_H

//#include<linux/my_msg.h>
#include<linux/sched.h>

static int my_strcmp(const char *cs, const char *ct) {
    1330:	callq  1335 <my_strcmp.constprop.33+0x5>
    1335:	push   %rbp
    1336:	mov    $0x0,%rax
    133d:	mov    %rsp,%rbp
    1340:	jmp    134c <my_strcmp.constprop.33+0x1c>
    1342:	nopw   0x0(%rax,%rax,1)
/home/lookfiresu/Desktop/my_linux-3.13.0/include/linux/interactive_design.h:15
	while (1) {
		c1 = *cs++;
		c2 = *ct++;
		if (c1 != c2)
			return c1 < c2 ? -1 : 1;
		if (!c1)
    1348:	test   %dl,%dl
    134a:	je     1368 <my_strcmp.constprop.33+0x38>
/home/lookfiresu/Desktop/my_linux-3.13.0/include/linux/interactive_design.h:11

static int my_strcmp(const char *cs, const char *ct) {
	unsigned char c1, c2;

	while (1) {
		c1 = *cs++;
    134c:	add    $0x1,%rdi
    1350:	movzbl -0x1(%rdi),%edx
/home/lookfiresu/Desktop/my_linux-3.13.0/include/linux/interactive_design.h:12
		c2 = *ct++;
    1354:	add    $0x1,%rax
/home/lookfiresu/Desktop/my_linux-3.13.0/include/linux/interactive_design.h:13
		if (c1 != c2)
    1358:	cmp    -0x1(%rax),%dl
    135b:	je     1348 <my_strcmp.constprop.33+0x18>
/home/lookfiresu/Desktop/my_linux-3.13.0/include/linux/interactive_design.h:14
			return c1 < c2 ? -1 : 1;
    135d:	sbb    %eax,%eax
    135f:	or     $0x1,%eax
/home/lookfiresu/Desktop/my_linux-3.13.0/include/linux/interactive_design.h:19
		if (!c1)
			break;
	}
	return 0;
}
    1362:	pop    %rbp
    1363:	retq   
    1364:	nopl   0x0(%rax)
/home/lookfiresu/Desktop/my_linux-3.13.0/include/linux/interactive_design.h:18
		if (c1 != c2)
			return c1 < c2 ? -1 : 1;
		if (!c1)
			break;
	}
	return 0;
    1368:	xor    %eax,%eax
/home/lookfiresu/Desktop/my_linux-3.13.0/include/linux/interactive_design.h:19
}
    136a:	pop    %rbp
    136b:	retq   
my_strcmp.constprop.33():
    136c:	nopl   0x0(%rax)

0000000000001370 <my_strcmp_base.constprop.35>:
my_strcmp_base():
/home/lookfiresu/Desktop/my_linux-3.13.0/arch/x86/include/asm/current.h:22
}

static int my_strcmp_base(const char *cs, const char *ct) {
    1370:	callq  1375 <my_strcmp_base.constprop.35+0x5>
    1375:	push   %rbp
    1376:	mov    $0x0,%rax
    137d:	mov    %rsp,%rbp
    1380:	jmp    138c <my_strcmp_base.constprop.35+0x1c>
    1382:	nopw   0x0(%rax,%rax,1)
/home/lookfiresu/Desktop/my_linux-3.13.0/arch/x86/include/asm/current.h:30
	while (1) {
		c1 = *cs++;
		c2 = *ct++;
		if (c1 != c2)
			return c1 < c2 ? -1 : 1;
		if (!c1)
    1388:	test   %dl,%dl
    138a:	je     13a8 <my_strcmp_base.constprop.35+0x38>
/home/lookfiresu/Desktop/my_linux-3.13.0/arch/x86/include/asm/current.h:26

static int my_strcmp_base(const char *cs, const char *ct) {
	unsigned char c1, c2;

	while (1) {
		c1 = *cs++;
    138c:	add    $0x1,%rdi
    1390:	movzbl -0x1(%rdi),%edx
/home/lookfiresu/Desktop/my_linux-3.13.0/arch/x86/include/asm/current.h:27
		c2 = *ct++;
    1394:	add    $0x1,%rax
/home/lookfiresu/Desktop/my_linux-3.13.0/arch/x86/include/asm/current.h:28
		if (c1 != c2)
    1398:	cmp    -0x1(%rax),%dl
    139b:	je     1388 <my_strcmp_base.constprop.35+0x18>
/home/lookfiresu/Desktop/my_linux-3.13.0/arch/x86/include/asm/current.h:29
			return c1 < c2 ? -1 : 1;
    139d:	sbb    %eax,%eax
    139f:	or     $0x1,%eax
/home/lookfiresu/Desktop/my_linux-3.13.0/arch/x86/include/asm/current.h:34
		if (!c1)
			break;
	}
	return 0;
}
    13a2:	pop    %rbp
    13a3:	retq   
    13a4:	nopl   0x0(%rax)
/home/lookfiresu/Desktop/my_linux-3.13.0/arch/x86/include/asm/current.h:33
		if (c1 != c2)
			return c1 < c2 ? -1 : 1;
		if (!c1)
			break;
	}
	return 0;
    13a8:	xor    %eax,%eax
/home/lookfiresu/Desktop/my_linux-3.13.0/arch/x86/include/asm/current.h:34
}
    13aa:	pop    %rbp
    13ab:	retq   
my_strcmp_base.constprop.35():
    13ac:	nopl   0x0(%rax)

00000000000013b0 <full_name_hash>:
full_name_hash():
/home/lookfiresu/Desktop/my_linux-3.13.0/fs/namei.c:1655
		if (len < sizeof(unsigned long))
			break;
		hash += a;
		hash *= 9;
		name += sizeof(unsigned long);
		len -= sizeof(unsigned long);
    13b0:	callq  13b5 <full_name_hash+0x5>
    13b5:	push   %rbp
/home/lookfiresu/Desktop/my_linux-3.13.0/fs/namei.c:1657
		if (!len)
			goto done;
    13b6:	xor    %eax,%eax
/home/lookfiresu/Desktop/my_linux-3.13.0/fs/namei.c:1655
		if (len < sizeof(unsigned long))
			break;
		hash += a;
		hash *= 9;
		name += sizeof(unsigned long);
		len -= sizeof(unsigned long);
    13b8:	mov    %rsp,%rbp
    13bb:	jmp    13d0 <full_name_hash+0x20>
    13bd:	nopl   (%rax)
/home/lookfiresu/Desktop/my_linux-3.13.0/fs/namei.c:1663
	}
	mask = bytemask_from_count(len);
	hash += mask & a;
done:
	return fold_hash(hash);
}
    13c0:	add    %rdx,%rax
/home/lookfiresu/Desktop/my_linux-3.13.0/fs/namei.c:1665
EXPORT_SYMBOL(full_name_hash);

    13c3:	add    $0x8,%rdi
/home/lookfiresu/Desktop/my_linux-3.13.0/fs/namei.c:1667
/*
 * Calculate the length and hash of the path component, and
    13c7:	sub    $0x8,%esi
/home/lookfiresu/Desktop/my_linux-3.13.0/fs/namei.c:1664
	mask = bytemask_from_count(len);
	hash += mask & a;
done:
	return fold_hash(hash);
}
EXPORT_SYMBOL(full_name_hash);
    13ca:	lea    (%rax,%rax,8),%rax
/home/lookfiresu/Desktop/my_linux-3.13.0/fs/namei.c:1667

/*
 * Calculate the length and hash of the path component, and
    13ce:	je     13f2 <full_name_hash+0x42>
load_unaligned_zeropad():
/home/lookfiresu/Desktop/my_linux-3.13.0/arch/x86/include/asm/word-at-a-time.h:83
 */
static inline unsigned long load_unaligned_zeropad(const void *addr)
{
	unsigned long ret, dummy;

	asm(
    13d0:	mov    (%rdi),%rdx
full_name_hash():
/home/lookfiresu/Desktop/my_linux-3.13.0/fs/namei.c:1661
		if (!len)
			goto done;
	}
	mask = bytemask_from_count(len);
	hash += mask & a;
done:
    13d3:	cmp    $0x7,%esi
    13d6:	ja     13c0 <full_name_hash+0x10>
/home/lookfiresu/Desktop/my_linux-3.13.0/fs/namei.c:1670

/*
 * Calculate the length and hash of the path component, and
 * return the length of the component;
 */
static inline unsigned long hash_name(const char *name, unsigned int *hashp)
    13d8:	lea    0x0(,%rsi,8),%ecx
    13df:	mov    $0xffffffffffffffff,%rdi
    13e6:	shl    %cl,%rdi
    13e9:	not    %rdi
/home/lookfiresu/Desktop/my_linux-3.13.0/fs/namei.c:1671
{
    13ec:	and    %rdx,%rdi
    13ef:	add    %rdi,%rax
fold_hash():
/home/lookfiresu/Desktop/my_linux-3.13.0/fs/namei.c:1644
#define fold_hash(x) (x)

#endif

unsigned int full_name_hash(const unsigned char *name, unsigned int len)
{
    13f2:	mov    %rax,%rdx
    13f5:	shr    $0x20,%rdx
    13f9:	add    %rdx,%rax
full_name_hash():
/home/lookfiresu/Desktop/my_linux-3.13.0/fs/namei.c:1674
 */
static inline unsigned long hash_name(const char *name, unsigned int *hashp)
{
	unsigned long a, b, adata, bdata, mask, hash, len;
	const struct word_at_a_time constants = WORD_AT_A_TIME_CONSTANTS;

    13fc:	pop    %rbp
    13fd:	retq   
    13fe:	xchg   %ax,%ax

0000000000001400 <path_get>:
path_get():
/home/lookfiresu/Desktop/my_linux-3.13.0/fs/namei.c:474
 * Given a path increment the reference count to the dentry and the vfsmount.
 */
void path_get(const struct path *path)
{
	mntget(path->mnt);
	dget(path->dentry);
    1400:	callq  1405 <path_get+0x5>
    1405:	push   %rbp
    1406:	mov    %rsp,%rbp
    1409:	push   %rbx
    140a:	mov    %rdi,%rbx
/home/lookfiresu/Desktop/my_linux-3.13.0/fs/namei.c:475
}
    140d:	mov    (%rdi),%rdi
    1410:	callq  1415 <path_get+0x15>
get_current():
/home/lookfiresu/Desktop/my_linux-3.13.0/arch/x86/include/asm/current.h:19

DECLARE_PER_CPU(struct task_struct *, current_task);

static __always_inline struct task_struct *get_current(void)
{
	return this_cpu_read_stable(current_task);
    1415:	mov    %gs:0x0,%rdx
path_get():
/home/lookfiresu/Desktop/my_linux-3.13.0/fs/namei.c:476
EXPORT_SYMBOL(path_get);
    141e:	mov    0x8(%rbx),%rbx
dget():
/home/lookfiresu/Desktop/my_linux-3.13.0/include/linux/dcache.h:360
    1422:	add    $0x4a8,%rdx
    1429:	mov    $0x0,%rax
    1430:	jmp    143c <path_get+0x3c>
    1432:	nopw   0x0(%rax,%rax,1)
my_strcmp():
/home/lookfiresu/Desktop/my_linux-3.13.0/include/linux/interactive_design.h:15
	while (1) {
		c1 = *cs++;
		c2 = *ct++;
		if (c1 != c2)
			return c1 < c2 ? -1 : 1;
		if (!c1)
    1438:	test   %cl,%cl
    143a:	je     14a0 <path_get+0xa0>
/home/lookfiresu/Desktop/my_linux-3.13.0/include/linux/interactive_design.h:11

static int my_strcmp(const char *cs, const char *ct) {
	unsigned char c1, c2;

	while (1) {
		c1 = *cs++;
    143c:	add    $0x1,%rdx
    1440:	movzbl -0x1(%rdx),%ecx
/home/lookfiresu/Desktop/my_linux-3.13.0/include/linux/interactive_design.h:12
		c2 = *ct++;
    1444:	add    $0x1,%rax
/home/lookfiresu/Desktop/my_linux-3.13.0/include/linux/interactive_design.h:13
		if (c1 != c2)
    1448:	cmp    -0x1(%rax),%cl
    144b:	je     1438 <path_get+0x38>
get_current():
/home/lookfiresu/Desktop/my_linux-3.13.0/arch/x86/include/asm/current.h:19
    144d:	mov    %gs:0x0,%rdx
dget():
/home/lookfiresu/Desktop/my_linux-3.13.0/include/linux/dcache.h:360
    1456:	mov    $0x0,%rax
    145d:	add    $0x4a8,%rdx
    1464:	jmp    1474 <path_get+0x74>
    1466:	nopw   %cs:0x0(%rax,%rax,1)
my_strcmp():
/home/lookfiresu/Desktop/my_linux-3.13.0/include/linux/interactive_design.h:15
			return c1 < c2 ? -1 : 1;
		if (!c1)
    1470:	test   %cl,%cl
    1472:	je     14a0 <path_get+0xa0>
/home/lookfiresu/Desktop/my_linux-3.13.0/include/linux/interactive_design.h:11

static int my_strcmp(const char *cs, const char *ct) {
	unsigned char c1, c2;

	while (1) {
		c1 = *cs++;
    1474:	add    $0x1,%rdx
    1478:	movzbl -0x1(%rdx),%ecx
/home/lookfiresu/Desktop/my_linux-3.13.0/include/linux/interactive_design.h:12
		c2 = *ct++;
    147c:	add    $0x1,%rax
/home/lookfiresu/Desktop/my_linux-3.13.0/include/linux/interactive_design.h:13
		if (c1 != c2)
    1480:	cmp    -0x1(%rax),%cl
    1483:	je     1470 <path_get+0x70>
dget():
/home/lookfiresu/Desktop/my_linux-3.13.0/include/linux/dcache.h:361
	if (dentry)
    1485:	test   %rbx,%rbx
    1488:	je     1493 <path_get+0x93>
/home/lookfiresu/Desktop/my_linux-3.13.0/include/linux/dcache.h:362
		lockref_get(&dentry->d_lockref);
    148a:	lea    0x58(%rbx),%rdi
    148e:	callq  1493 <path_get+0x93>
path_get():
/home/lookfiresu/Desktop/my_linux-3.13.0/fs/namei.c:477

    1493:	pop    %rbx
    1494:	pop    %rbp
    1495:	retq   
    1496:	nopw   %cs:0x0(%rax,%rax,1)
get_current():
/home/lookfiresu/Desktop/my_linux-3.13.0/arch/x86/include/asm/current.h:19
    14a0:	mov    %gs:0x0,%rdx
dget():
/home/lookfiresu/Desktop/my_linux-3.13.0/include/linux/dcache.h:360
	return dentry;
}

static inline struct dentry *dget(struct dentry *dentry)
{
  MY_PRINTK(get_current()->comm);
    14a9:	mov    $0x0,%rsi
    14b0:	add    $0x4a8,%rdx
    14b7:	mov    $0x0,%rdi
    14be:	xor    %eax,%eax
    14c0:	callq  14c5 <path_get+0xc5>
    14c5:	jmp    1485 <path_get+0x85>
path_get():
    14c7:	nopw   0x0(%rax,%rax,1)

00000000000014d0 <follow_down_one>:
follow_down_one():
/home/lookfiresu/Desktop/my_linux-3.13.0/fs/namei.c:1088
{
	struct vfsmount *mounted;

	mounted = lookup_mnt(path);
	if (mounted) {
		dput(path->dentry);
    14d0:	callq  14d5 <follow_down_one+0x5>
    14d5:	push   %rbp
    14d6:	mov    %rsp,%rbp
    14d9:	push   %r12
    14db:	push   %rbx
    14dc:	mov    %rdi,%rbx
/home/lookfiresu/Desktop/my_linux-3.13.0/fs/namei.c:1091
		mntput(path->mnt);
		path->mnt = mounted;
		path->dentry = dget(mounted->mnt_root);
    14df:	callq  14e4 <follow_down_one+0x14>
    14e4:	mov    %rax,%r12
/home/lookfiresu/Desktop/my_linux-3.13.0/fs/namei.c:1099
	return 0;
}

static inline bool managed_dentry_might_block(struct dentry *dentry)
{
	return (dentry->d_flags & DCACHE_MANAGE_TRANSIT &&
    14e7:	xor    %eax,%eax
/home/lookfiresu/Desktop/my_linux-3.13.0/fs/namei.c:1092
	if (mounted) {
		dput(path->dentry);
		mntput(path->mnt);
		path->mnt = mounted;
		path->dentry = dget(mounted->mnt_root);
		return 1;
    14e9:	test   %r12,%r12
    14ec:	je     158d <follow_down_one+0xbd>
/home/lookfiresu/Desktop/my_linux-3.13.0/fs/namei.c:1093
	}
    14f2:	mov    0x8(%rbx),%rdi
    14f6:	callq  14fb <follow_down_one+0x2b>
/home/lookfiresu/Desktop/my_linux-3.13.0/fs/namei.c:1094
	return 0;
    14fb:	mov    (%rbx),%rdi
    14fe:	callq  1503 <follow_down_one+0x33>
/home/lookfiresu/Desktop/my_linux-3.13.0/fs/namei.c:1095
}
    1503:	mov    %r12,(%rbx)
dget():
/home/lookfiresu/Desktop/my_linux-3.13.0/include/linux/dcache.h:360
    1506:	mov    $0x0,%rax
follow_down_one():
/home/lookfiresu/Desktop/my_linux-3.13.0/fs/namei.c:1096

    150d:	mov    (%r12),%r12
get_current():
/home/lookfiresu/Desktop/my_linux-3.13.0/arch/x86/include/asm/current.h:19
    1511:	mov    %gs:0x0,%rdx
dget():
/home/lookfiresu/Desktop/my_linux-3.13.0/include/linux/dcache.h:360
    151a:	add    $0x4a8,%rdx
    1521:	jmp    152c <follow_down_one+0x5c>
    1523:	nopl   0x0(%rax,%rax,1)
my_strcmp():
/home/lookfiresu/Desktop/my_linux-3.13.0/include/linux/interactive_design.h:15
			return c1 < c2 ? -1 : 1;
		if (!c1)
    1528:	test   %cl,%cl
    152a:	je     1598 <follow_down_one+0xc8>
/home/lookfiresu/Desktop/my_linux-3.13.0/include/linux/interactive_design.h:11

static int my_strcmp(const char *cs, const char *ct) {
	unsigned char c1, c2;

	while (1) {
		c1 = *cs++;
    152c:	add    $0x1,%rdx
    1530:	movzbl -0x1(%rdx),%ecx
/home/lookfiresu/Desktop/my_linux-3.13.0/include/linux/interactive_design.h:12
		c2 = *ct++;
    1534:	add    $0x1,%rax
/home/lookfiresu/Desktop/my_linux-3.13.0/include/linux/interactive_design.h:13
		if (c1 != c2)
    1538:	cmp    -0x1(%rax),%cl
    153b:	je     1528 <follow_down_one+0x58>
get_current():
/home/lookfiresu/Desktop/my_linux-3.13.0/arch/x86/include/asm/current.h:19
    153d:	mov    %gs:0x0,%rdx
dget():
/home/lookfiresu/Desktop/my_linux-3.13.0/include/linux/dcache.h:360
    1546:	mov    $0x0,%rax
    154d:	add    $0x4a8,%rdx
    1554:	jmp    1564 <follow_down_one+0x94>
    1556:	nopw   %cs:0x0(%rax,%rax,1)
my_strcmp():
/home/lookfiresu/Desktop/my_linux-3.13.0/include/linux/interactive_design.h:15
			return c1 < c2 ? -1 : 1;
		if (!c1)
    1560:	test   %cl,%cl
    1562:	je     1598 <follow_down_one+0xc8>
/home/lookfiresu/Desktop/my_linux-3.13.0/include/linux/interactive_design.h:11

static int my_strcmp(const char *cs, const char *ct) {
	unsigned char c1, c2;

	while (1) {
		c1 = *cs++;
    1564:	add    $0x1,%rdx
    1568:	movzbl -0x1(%rdx),%ecx
/home/lookfiresu/Desktop/my_linux-3.13.0/include/linux/interactive_design.h:12
		c2 = *ct++;
    156c:	add    $0x1,%rax
/home/lookfiresu/Desktop/my_linux-3.13.0/include/linux/interactive_design.h:13
		if (c1 != c2)
    1570:	cmp    -0x1(%rax),%cl
    1573:	je     1560 <follow_down_one+0x90>
dget():
/home/lookfiresu/Desktop/my_linux-3.13.0/include/linux/dcache.h:361
	if (dentry)
    1575:	test   %r12,%r12
    1578:	je     1584 <follow_down_one+0xb4>
/home/lookfiresu/Desktop/my_linux-3.13.0/include/linux/dcache.h:362
		lockref_get(&dentry->d_lockref);
    157a:	lea    0x58(%r12),%rdi
    157f:	callq  1584 <follow_down_one+0xb4>
follow_down_one():
/home/lookfiresu/Desktop/my_linux-3.13.0/fs/namei.c:1096
    1584:	mov    %r12,0x8(%rbx)
/home/lookfiresu/Desktop/my_linux-3.13.0/fs/namei.c:1097
static inline bool managed_dentry_might_block(struct dentry *dentry)
    1588:	mov    $0x1,%eax
/home/lookfiresu/Desktop/my_linux-3.13.0/fs/namei.c:1100
{
	return (dentry->d_flags & DCACHE_MANAGE_TRANSIT &&
		dentry->d_op->d_manage(dentry, true) < 0);
    158d:	pop    %rbx
    158e:	pop    %r12
    1590:	pop    %rbp
    1591:	retq   
    1592:	nopw   0x0(%rax,%rax,1)
get_current():
/home/lookfiresu/Desktop/my_linux-3.13.0/arch/x86/include/asm/current.h:19
    1598:	mov    %gs:0x0,%rdx
dget():
/home/lookfiresu/Desktop/my_linux-3.13.0/include/linux/dcache.h:360
	return dentry;
}

static inline struct dentry *dget(struct dentry *dentry)
{
  MY_PRINTK(get_current()->comm);
    15a1:	mov    $0x0,%rsi
    15a8:	add    $0x4a8,%rdx
    15af:	mov    $0x0,%rdi
    15b6:	xor    %eax,%eax
    15b8:	callq  15bd <follow_down_one+0xed>
    15bd:	jmp    1575 <follow_down_one+0xa5>
follow_down_one():
    15bf:	nop

00000000000015c0 <follow_mount>:
follow_mount():
/home/lookfiresu/Desktop/my_linux-3.13.0/fs/namei.c:1247
	while (d_mountpoint(path->dentry)) {
		struct vfsmount *mounted = lookup_mnt(path);
		if (!mounted)
			break;
		dput(path->dentry);
		mntput(path->mnt);
    15c0:	callq  15c5 <follow_mount+0x5>
    15c5:	push   %rbp
    15c6:	mov    %rsp,%rbp
    15c9:	push   %r15
    15cb:	push   %r14
    15cd:	push   %r13
    15cf:	push   %r12
    15d1:	push   %rbx
/home/lookfiresu/Desktop/my_linux-3.13.0/fs/namei.c:1252
		path->mnt = mounted;
		path->dentry = dget(mounted->mnt_root);
	}
}

    15d2:	mov    0x8(%rdi),%rax
/home/lookfiresu/Desktop/my_linux-3.13.0/fs/namei.c:1247
	while (d_mountpoint(path->dentry)) {
		struct vfsmount *mounted = lookup_mnt(path);
		if (!mounted)
			break;
		dput(path->dentry);
		mntput(path->mnt);
    15d6:	mov    %rdi,%rbx
d_mountpoint():
/home/lookfiresu/Desktop/my_linux-3.13.0/include/linux/dcache.h:406
	return dentry->d_flags & DCACHE_MANAGED_DENTRY;
}

static inline bool d_mountpoint(const struct dentry *dentry)
{
	return dentry->d_flags & DCACHE_MOUNTED;
    15d9:	mov    (%rax),%eax
follow_mount():
/home/lookfiresu/Desktop/my_linux-3.13.0/fs/namei.c:1248
		path->mnt = mounted;
    15db:	test   $0x10000,%eax
    15e0:	je     169d <follow_mount+0xdd>
get_current():
/home/lookfiresu/Desktop/my_linux-3.13.0/arch/x86/include/asm/current.h:19
    15e6:	mov    %gs:0x0,%r12
dget():
/home/lookfiresu/Desktop/my_linux-3.13.0/include/linux/dcache.h:360
	return dentry;
}

static inline struct dentry *dget(struct dentry *dentry)
{
  MY_PRINTK(get_current()->comm);
    15ef:	lea    0x4a8(%r12),%r14
get_current():
/home/lookfiresu/Desktop/my_linux-3.13.0/arch/x86/include/asm/current.h:19
    15f7:	mov    %r12,%r13
    15fa:	nopw   0x0(%rax,%rax,1)
follow_mount():
/home/lookfiresu/Desktop/my_linux-3.13.0/fs/namei.c:1249
		path->dentry = dget(mounted->mnt_root);
    1600:	mov    %rbx,%rdi
    1603:	callq  1608 <follow_mount+0x48>
/home/lookfiresu/Desktop/my_linux-3.13.0/fs/namei.c:1250
	}
    1608:	test   %rax,%rax
/home/lookfiresu/Desktop/my_linux-3.13.0/fs/namei.c:1249
		if (!mounted)
			break;
		dput(path->dentry);
		mntput(path->mnt);
		path->mnt = mounted;
		path->dentry = dget(mounted->mnt_root);
    160b:	mov    %rax,%r15
/home/lookfiresu/Desktop/my_linux-3.13.0/fs/namei.c:1250
	}
    160e:	je     169d <follow_mount+0xdd>
/home/lookfiresu/Desktop/my_linux-3.13.0/fs/namei.c:1252
}

    1614:	mov    0x8(%rbx),%rdi
    1618:	callq  161d <follow_mount+0x5d>
/home/lookfiresu/Desktop/my_linux-3.13.0/fs/namei.c:1253
static void follow_dotdot(struct nameidata *nd)
    161d:	mov    (%rbx),%rdi
    1620:	callq  1625 <follow_mount+0x65>
/home/lookfiresu/Desktop/my_linux-3.13.0/fs/namei.c:1254
{
    1625:	mov    %r15,(%rbx)
dget():
/home/lookfiresu/Desktop/my_linux-3.13.0/include/linux/dcache.h:360
    1628:	lea    0x4a8(%r12),%rdx
follow_mount():
/home/lookfiresu/Desktop/my_linux-3.13.0/fs/namei.c:1255
	set_root(nd);
    1630:	mov    (%r15),%r15
dget():
/home/lookfiresu/Desktop/my_linux-3.13.0/include/linux/dcache.h:360
    1633:	mov    $0x0,%rax
    163a:	jmp    1644 <follow_mount+0x84>
    163c:	nopl   0x0(%rax)
my_strcmp():
/home/lookfiresu/Desktop/my_linux-3.13.0/include/linux/interactive_design.h:15
			return c1 < c2 ? -1 : 1;
		if (!c1)
    1640:	test   %cl,%cl
    1642:	je     16b0 <follow_mount+0xf0>
/home/lookfiresu/Desktop/my_linux-3.13.0/include/linux/interactive_design.h:11

static int my_strcmp(const char *cs, const char *ct) {
	unsigned char c1, c2;

	while (1) {
		c1 = *cs++;
    1644:	add    $0x1,%rdx
    1648:	movzbl -0x1(%rdx),%ecx
/home/lookfiresu/Desktop/my_linux-3.13.0/include/linux/interactive_design.h:12
		c2 = *ct++;
    164c:	add    $0x1,%rax
/home/lookfiresu/Desktop/my_linux-3.13.0/include/linux/interactive_design.h:13
		if (c1 != c2)
    1650:	cmp    -0x1(%rax),%cl
    1653:	je     1640 <follow_mount+0x80>
dget():
/home/lookfiresu/Desktop/my_linux-3.13.0/include/linux/dcache.h:360
    1655:	lea    0x4a8(%r13),%rdx
    165c:	mov    $0x0,%rax
    1663:	jmp    166c <follow_mount+0xac>
    1665:	nopl   (%rax)
my_strcmp():
/home/lookfiresu/Desktop/my_linux-3.13.0/include/linux/interactive_design.h:15
			return c1 < c2 ? -1 : 1;
		if (!c1)
    1668:	test   %cl,%cl
    166a:	je     16b0 <follow_mount+0xf0>
/home/lookfiresu/Desktop/my_linux-3.13.0/include/linux/interactive_design.h:11

static int my_strcmp(const char *cs, const char *ct) {
	unsigned char c1, c2;

	while (1) {
		c1 = *cs++;
    166c:	add    $0x1,%rdx
    1670:	movzbl -0x1(%rdx),%ecx
/home/lookfiresu/Desktop/my_linux-3.13.0/include/linux/interactive_design.h:12
		c2 = *ct++;
    1674:	add    $0x1,%rax
/home/lookfiresu/Desktop/my_linux-3.13.0/include/linux/interactive_design.h:13
		if (c1 != c2)
    1678:	cmp    -0x1(%rax),%cl
    167b:	je     1668 <follow_mount+0xa8>
dget():
/home/lookfiresu/Desktop/my_linux-3.13.0/include/linux/dcache.h:361
	if (dentry)
    167d:	test   %r15,%r15
    1680:	je     168b <follow_mount+0xcb>
/home/lookfiresu/Desktop/my_linux-3.13.0/include/linux/dcache.h:362
		lockref_get(&dentry->d_lockref);
    1682:	lea    0x58(%r15),%rdi
    1686:	callq  168b <follow_mount+0xcb>
follow_mount():
/home/lookfiresu/Desktop/my_linux-3.13.0/fs/namei.c:1255
    168b:	mov    %r15,0x8(%rbx)
d_mountpoint():
/home/lookfiresu/Desktop/my_linux-3.13.0/include/linux/dcache.h:406
	return dentry->d_flags & DCACHE_MANAGED_DENTRY;
}

static inline bool d_mountpoint(const struct dentry *dentry)
{
	return dentry->d_flags & DCACHE_MOUNTED;
    168f:	mov    (%r15),%eax
follow_mount():
/home/lookfiresu/Desktop/my_linux-3.13.0/fs/namei.c:1248
		struct vfsmount *mounted = lookup_mnt(path);
		if (!mounted)
			break;
		dput(path->dentry);
		mntput(path->mnt);
		path->mnt = mounted;
    1692:	test   $0x10000,%eax
    1697:	jne    1600 <follow_mount+0x40>
/home/lookfiresu/Desktop/my_linux-3.13.0/fs/namei.c:1257

static void follow_dotdot(struct nameidata *nd)
{
	set_root(nd);

	while(1) {
    169d:	pop    %rbx
    169e:	pop    %r12
    16a0:	pop    %r13
    16a2:	pop    %r14
    16a4:	pop    %r15
    16a6:	pop    %rbp
    16a7:	retq   
    16a8:	nopl   0x0(%rax,%rax,1)
dget():
/home/lookfiresu/Desktop/my_linux-3.13.0/include/linux/dcache.h:360
	return dentry;
}

static inline struct dentry *dget(struct dentry *dentry)
{
  MY_PRINTK(get_current()->comm);
    16b0:	mov    %r14,%rdx
    16b3:	mov    $0x0,%rsi
    16ba:	mov    $0x0,%rdi
    16c1:	xor    %eax,%eax
    16c3:	callq  16c8 <follow_mount+0x108>
    16c8:	jmp    167d <follow_mount+0xbd>
follow_mount():
    16ca:	nopw   0x0(%rax,%rax,1)

00000000000016d0 <get_fs_root>:
get_fs_root():
/home/lookfiresu/Desktop/my_linux-3.13.0/include/linux/fs_struct.h:27
extern struct fs_struct *copy_fs_struct(struct fs_struct *);
extern void free_fs_struct(struct fs_struct *);
extern int unshare_fs_struct(void);

static inline void get_fs_root(struct fs_struct *fs, struct path *root)
{
    16d0:	push   %rbp
    16d1:	mov    %rsp,%rbp
    16d4:	push   %r13
    16d6:	mov    %rdi,%r13
    16d9:	push   %r12
    16db:	mov    %rsi,%r12
    16de:	push   %rbx
spin_lock():
/home/lookfiresu/Desktop/my_linux-3.13.0/include/linux/spinlock.h:293
	raw_spin_lock_init(&(_lock)->rlock);		\
} while (0)

static inline void spin_lock(spinlock_t *lock)
{
	raw_spin_lock(&lock->rlock);
    16df:	lea    0x4(%rdi),%rbx
    16e3:	mov    %rbx,%rdi
    16e6:	callq  16eb <get_fs_root+0x1b>
get_fs_root():
/home/lookfiresu/Desktop/my_linux-3.13.0/include/linux/fs_struct.h:29
	spin_lock(&fs->lock);
	*root = fs->root;
    16eb:	mov    0x18(%r13),%rax
    16ef:	mov    0x20(%r13),%rdx
    16f3:	mov    %rax,%rdi
    16f6:	mov    %rdx,0x8(%r12)
    16fb:	mov    %rax,(%r12)
path_get():
/home/lookfiresu/Desktop/my_linux-3.13.0/fs/namei.c:475
 */
void path_get(const struct path *path)
{
	mntget(path->mnt);
	dget(path->dentry);
}
    16ff:	callq  1704 <get_fs_root+0x34>
get_current():
/home/lookfiresu/Desktop/my_linux-3.13.0/arch/x86/include/asm/current.h:19
    1704:	mov    %gs:0x0,%rdx
path_get():
/home/lookfiresu/Desktop/my_linux-3.13.0/fs/namei.c:476
EXPORT_SYMBOL(path_get);
    170d:	mov    0x8(%r12),%r12
dget():
/home/lookfiresu/Desktop/my_linux-3.13.0/include/linux/dcache.h:360
    1712:	add    $0x4a8,%rdx
    1719:	mov    $0x0,%rax
    1720:	jmp    172c <get_fs_root+0x5c>
    1722:	nopw   0x0(%rax,%rax,1)
my_strcmp():
/home/lookfiresu/Desktop/my_linux-3.13.0/include/linux/interactive_design.h:15
			return c1 < c2 ? -1 : 1;
		if (!c1)
    1728:	test   %cl,%cl
    172a:	je     1798 <get_fs_root+0xc8>
/home/lookfiresu/Desktop/my_linux-3.13.0/include/linux/interactive_design.h:11

static int my_strcmp(const char *cs, const char *ct) {
	unsigned char c1, c2;

	while (1) {
		c1 = *cs++;
    172c:	add    $0x1,%rdx
    1730:	movzbl -0x1(%rdx),%ecx
/home/lookfiresu/Desktop/my_linux-3.13.0/include/linux/interactive_design.h:12
		c2 = *ct++;
    1734:	add    $0x1,%rax
/home/lookfiresu/Desktop/my_linux-3.13.0/include/linux/interactive_design.h:13
		if (c1 != c2)
    1738:	cmp    -0x1(%rax),%cl
    173b:	je     1728 <get_fs_root+0x58>
get_current():
/home/lookfiresu/Desktop/my_linux-3.13.0/arch/x86/include/asm/current.h:19
    173d:	mov    %gs:0x0,%rdx
dget():
/home/lookfiresu/Desktop/my_linux-3.13.0/include/linux/dcache.h:360
    1746:	mov    $0x0,%rax
    174d:	add    $0x4a8,%rdx
    1754:	jmp    1764 <get_fs_root+0x94>
    1756:	nopw   %cs:0x0(%rax,%rax,1)
my_strcmp():
/home/lookfiresu/Desktop/my_linux-3.13.0/include/linux/interactive_design.h:15
			return c1 < c2 ? -1 : 1;
		if (!c1)
    1760:	test   %cl,%cl
    1762:	je     1798 <get_fs_root+0xc8>
/home/lookfiresu/Desktop/my_linux-3.13.0/include/linux/interactive_design.h:11

static int my_strcmp(const char *cs, const char *ct) {
	unsigned char c1, c2;

	while (1) {
		c1 = *cs++;
    1764:	add    $0x1,%rdx
    1768:	movzbl -0x1(%rdx),%ecx
/home/lookfiresu/Desktop/my_linux-3.13.0/include/linux/interactive_design.h:12
		c2 = *ct++;
    176c:	add    $0x1,%rax
/home/lookfiresu/Desktop/my_linux-3.13.0/include/linux/interactive_design.h:13
		if (c1 != c2)
    1770:	cmp    -0x1(%rax),%cl
    1773:	je     1760 <get_fs_root+0x90>
dget():
/home/lookfiresu/Desktop/my_linux-3.13.0/include/linux/dcache.h:361
	if (dentry)
    1775:	test   %r12,%r12
    1778:	je     1784 <get_fs_root+0xb4>
/home/lookfiresu/Desktop/my_linux-3.13.0/include/linux/dcache.h:362
		lockref_get(&dentry->d_lockref);
    177a:	lea    0x58(%r12),%rdi
    177f:	callq  1784 <get_fs_root+0xb4>
spin_unlock():
/home/lookfiresu/Desktop/my_linux-3.13.0/include/linux/spinlock.h:333
	raw_spin_lock_irqsave_nested(spinlock_check(lock), flags, subclass); \
} while (0)

static inline void spin_unlock(spinlock_t *lock)
{
	raw_spin_unlock(&lock->rlock);
    1784:	mov    %rbx,%rdi
    1787:	callq  178c <get_fs_root+0xbc>
get_fs_root():
/home/lookfiresu/Desktop/my_linux-3.13.0/include/linux/fs_struct.h:32
	path_get(root);
	spin_unlock(&fs->lock);
}
    178c:	pop    %rbx
    178d:	pop    %r12
    178f:	pop    %r13
    1791:	pop    %rbp
    1792:	retq   
    1793:	nopl   0x0(%rax,%rax,1)
get_current():
/home/lookfiresu/Desktop/my_linux-3.13.0/arch/x86/include/asm/current.h:19
    1798:	mov    %gs:0x0,%rdx
dget():
/home/lookfiresu/Desktop/my_linux-3.13.0/include/linux/dcache.h:360
	return dentry;
}

static inline struct dentry *dget(struct dentry *dentry)
{
  MY_PRINTK(get_current()->comm);
    17a1:	mov    $0x0,%rsi
    17a8:	add    $0x4a8,%rdx
    17af:	mov    $0x0,%rdi
    17b6:	xor    %eax,%eax
    17b8:	callq  17bd <get_fs_root+0xed>
    17bd:	jmp    1775 <get_fs_root+0xa5>
get_fs_root():
    17bf:	nop

00000000000017c0 <unlazy_walk>:
unlazy_walk():
/home/lookfiresu/Desktop/my_linux-3.13.0/fs/namei.c:515
 * @nd or NULL.  Must be called from rcu-walk context.
 */
static int unlazy_walk(struct nameidata *nd, struct dentry *dentry)
{
	struct fs_struct *fs = current->fs;
	struct dentry *parent = nd->path.dentry;
    17c0:	callq  17c5 <unlazy_walk+0x5>
    17c5:	push   %rbp
/home/lookfiresu/Desktop/my_linux-3.13.0/fs/namei.c:516

    17c6:	mov    $0x0,%rax
get_current():
/home/lookfiresu/Desktop/my_linux-3.13.0/arch/x86/include/asm/current.h:19
    17cd:	mov    %gs:0x0,%rdx
unlazy_walk():
/home/lookfiresu/Desktop/my_linux-3.13.0/fs/namei.c:515
 * @nd or NULL.  Must be called from rcu-walk context.
 */
static int unlazy_walk(struct nameidata *nd, struct dentry *dentry)
{
	struct fs_struct *fs = current->fs;
	struct dentry *parent = nd->path.dentry;
    17d6:	mov    %rsp,%rbp
    17d9:	push   %r14
/home/lookfiresu/Desktop/my_linux-3.13.0/fs/namei.c:516

    17db:	add    $0x4a8,%rdx
/home/lookfiresu/Desktop/my_linux-3.13.0/fs/namei.c:515
 * @nd or NULL.  Must be called from rcu-walk context.
 */
static int unlazy_walk(struct nameidata *nd, struct dentry *dentry)
{
	struct fs_struct *fs = current->fs;
	struct dentry *parent = nd->path.dentry;
    17e2:	push   %r13
    17e4:	push   %r12
    17e6:	mov    %rsi,%r12
    17e9:	push   %rbx
    17ea:	mov    %rdi,%rbx
    17ed:	jmp    17f8 <unlazy_walk+0x38>
    17ef:	nop
my_strcmp_base():
/home/lookfiresu/Desktop/my_linux-3.13.0/arch/x86/include/asm/current.h:30
	while (1) {
		c1 = *cs++;
		c2 = *ct++;
		if (c1 != c2)
			return c1 < c2 ? -1 : 1;
		if (!c1)
    17f0:	test   %cl,%cl
    17f2:	je     1890 <unlazy_walk+0xd0>
/home/lookfiresu/Desktop/my_linux-3.13.0/arch/x86/include/asm/current.h:26

static int my_strcmp_base(const char *cs, const char *ct) {
	unsigned char c1, c2;

	while (1) {
		c1 = *cs++;
    17f8:	add    $0x1,%rdx
    17fc:	movzbl -0x1(%rdx),%ecx
/home/lookfiresu/Desktop/my_linux-3.13.0/arch/x86/include/asm/current.h:27
		c2 = *ct++;
    1800:	add    $0x1,%rax
/home/lookfiresu/Desktop/my_linux-3.13.0/arch/x86/include/asm/current.h:28
		if (c1 != c2)
    1804:	cmp    -0x1(%rax),%cl
    1807:	je     17f0 <unlazy_walk+0x30>
unlazy_walk():
/home/lookfiresu/Desktop/my_linux-3.13.0/fs/namei.c:516

    1809:	mov    %gs:0x0,%rax
/home/lookfiresu/Desktop/my_linux-3.13.0/fs/namei.c:519 (discriminator 3)
	BUG_ON(!(nd->flags & LOOKUP_RCU));

	/*
    1812:	testb  $0x40,0x38(%rbx)
/home/lookfiresu/Desktop/my_linux-3.13.0/fs/namei.c:516 (discriminator 3)
 */
static int unlazy_walk(struct nameidata *nd, struct dentry *dentry)
{
	struct fs_struct *fs = current->fs;
	struct dentry *parent = nd->path.dentry;

    1816:	mov    0x588(%rax),%r14
/home/lookfiresu/Desktop/my_linux-3.13.0/fs/namei.c:517 (discriminator 3)
	BUG_ON(!(nd->flags & LOOKUP_RCU));
    181d:	mov    0x8(%rbx),%r13
/home/lookfiresu/Desktop/my_linux-3.13.0/fs/namei.c:519 (discriminator 3)

	/*
    1821:	je     19d9 <unlazy_walk+0x219>
/home/lookfiresu/Desktop/my_linux-3.13.0/fs/namei.c:529
	 * can't be legitimized, just set nd->path.dentry to NULL
	 * and rely on dput(NULL) being a no-op.
	 */
	if (!legitimize_mnt(nd->path.mnt, nd->m_seq))
		return -ECHILD;
	nd->flags &= ~LOOKUP_RCU;
    1827:	mov    0x40(%rbx),%esi
    182a:	mov    (%rbx),%rdi
    182d:	callq  1832 <unlazy_walk+0x72>
    1832:	test   %al,%al
    1834:	je     186c <unlazy_walk+0xac>
/home/lookfiresu/Desktop/my_linux-3.13.0/fs/namei.c:531

	if (!lockref_get_not_dead(&parent->d_lockref)) {
    1836:	andl   $0xffffffbf,0x38(%rbx)
/home/lookfiresu/Desktop/my_linux-3.13.0/fs/namei.c:533
		nd->path.dentry = NULL;	
		goto out;
    183a:	lea    0x58(%r13),%rdi
    183e:	callq  1843 <unlazy_walk+0x83>
    1843:	test   %eax,%eax
    1845:	je     1880 <unlazy_walk+0xc0>
/home/lookfiresu/Desktop/my_linux-3.13.0/fs/namei.c:549
	 * the child sequence number. So we know the parent must still
	 * be valid if the child sequence number is still valid.
	 */
	if (!dentry) {
		if (read_seqcount_retry(&parent->d_seq, nd->seq))
			goto out;
    1847:	test   %r12,%r12
    184a:	je     1900 <unlazy_walk+0x140>
/home/lookfiresu/Desktop/my_linux-3.13.0/fs/namei.c:554
		BUG_ON(nd->inode != parent->d_inode);
	} else {
		if (!lockref_get_not_dead(&dentry->d_lockref))
			goto out;
		if (read_seqcount_retry(&dentry->d_seq, nd->seq))
    1850:	lea    0x58(%r12),%rdi
    1855:	callq  185a <unlazy_walk+0x9a>
    185a:	test   %eax,%eax
    185c:	jne    18b0 <unlazy_walk+0xf0>
/home/lookfiresu/Desktop/my_linux-3.13.0/fs/namei.c:584
out:
	rcu_read_unlock();
drop_root_mnt:
	if (!(nd->flags & LOOKUP_ROOT))
		nd->root.mnt = NULL;
	return -ECHILD;
    185e:	testb  $0x20,0x39(%rbx)
    1862:	jne    186c <unlazy_walk+0xac>
/home/lookfiresu/Desktop/my_linux-3.13.0/fs/namei.c:585
}
    1864:	movq   $0x0,0x20(%rbx)
/home/lookfiresu/Desktop/my_linux-3.13.0/fs/namei.c:587

static inline int d_revalidate(struct dentry *dentry, unsigned int flags)
    186c:	pop    %rbx
    186d:	pop    %r12
    186f:	pop    %r13
    1871:	pop    %r14
/home/lookfiresu/Desktop/my_linux-3.13.0/fs/namei.c:586
drop_root_mnt:
	if (!(nd->flags & LOOKUP_ROOT))
		nd->root.mnt = NULL;
	return -ECHILD;
}

    1873:	mov    $0xfffffff6,%eax
/home/lookfiresu/Desktop/my_linux-3.13.0/fs/namei.c:587
static inline int d_revalidate(struct dentry *dentry, unsigned int flags)
    1878:	pop    %rbp
    1879:	retq   
    187a:	nopw   0x0(%rax,%rax,1)
/home/lookfiresu/Desktop/my_linux-3.13.0/fs/namei.c:534
	nd->flags &= ~LOOKUP_RCU;

	if (!lockref_get_not_dead(&parent->d_lockref)) {
		nd->path.dentry = NULL;	
		goto out;
	}
    1880:	movq   $0x0,0x8(%rbx)
/home/lookfiresu/Desktop/my_linux-3.13.0/fs/namei.c:535

    1888:	jmp    185e <unlazy_walk+0x9e>
    188a:	nopw   0x0(%rax,%rax,1)
/home/lookfiresu/Desktop/my_linux-3.13.0/fs/namei.c:516
 */
static int unlazy_walk(struct nameidata *nd, struct dentry *dentry)
{
	struct fs_struct *fs = current->fs;
	struct dentry *parent = nd->path.dentry;

    1890:	cmpb   $0x0,0x0(%rip)        # 1897 <unlazy_walk+0xd7>
    1897:	mov    0x0(%rip),%rax        # 189e <unlazy_walk+0xde>
    189e:	jne    1812 <unlazy_walk+0x52>
    18a4:	jmpq   1809 <unlazy_walk+0x49>
    18a9:	nopl   0x0(%rax)
/home/lookfiresu/Desktop/my_linux-3.13.0/fs/namei.c:556
	} else {
		if (!lockref_get_not_dead(&dentry->d_lockref))
			goto out;
		if (read_seqcount_retry(&dentry->d_seq, nd->seq))
			goto drop_dentry;
	}
    18b0:	mov    0x3c(%rbx),%eax
    18b3:	cmp    0x4(%r12),%eax
    18b8:	jne    18f0 <unlazy_walk+0x130>
/home/lookfiresu/Desktop/my_linux-3.13.0/fs/namei.c:564
	 * Sequence counts matched. Now make sure that the root is
	 * still valid and get it if required.
	 */
	if (nd->root.mnt && !(nd->flags & LOOKUP_ROOT)) {
		spin_lock(&fs->lock);
		if (nd->root.mnt != fs->root.mnt || nd->root.dentry != fs->root.dentry)
    18ba:	cmpq   $0x0,0x20(%rbx)
    18bf:	je     18c7 <unlazy_walk+0x107>
/home/lookfiresu/Desktop/my_linux-3.13.0/fs/namei.c:564 (discriminator 1)
    18c1:	testb  $0x20,0x39(%rbx)
    18c5:	je     18d2 <unlazy_walk+0x112>
/home/lookfiresu/Desktop/my_linux-3.13.0/fs/namei.c:573
	}

	rcu_read_unlock();
	return 0;

unlock_and_drop_dentry:
    18c7:	xor    %eax,%eax
/home/lookfiresu/Desktop/my_linux-3.13.0/fs/namei.c:587
	if (!(nd->flags & LOOKUP_ROOT))
		nd->root.mnt = NULL;
	return -ECHILD;
}

static inline int d_revalidate(struct dentry *dentry, unsigned int flags)
    18c9:	pop    %rbx
    18ca:	pop    %r12
    18cc:	pop    %r13
    18ce:	pop    %r14
    18d0:	pop    %rbp
    18d1:	retq   
spin_lock():
/home/lookfiresu/Desktop/my_linux-3.13.0/include/linux/spinlock.h:293
	raw_spin_lock_init(&(_lock)->rlock);		\
} while (0)

static inline void spin_lock(spinlock_t *lock)
{
	raw_spin_lock(&lock->rlock);
    18d2:	lea    0x4(%r14),%r13
    18d6:	mov    %r13,%rdi
    18d9:	callq  18de <unlazy_walk+0x11e>
unlazy_walk():
/home/lookfiresu/Desktop/my_linux-3.13.0/fs/namei.c:566
	 */
	if (nd->root.mnt && !(nd->flags & LOOKUP_ROOT)) {
		spin_lock(&fs->lock);
		if (nd->root.mnt != fs->root.mnt || nd->root.dentry != fs->root.dentry)
			goto unlock_and_drop_dentry;
		path_get(&nd->root);
    18de:	mov    0x20(%rbx),%rdi
    18e2:	cmp    0x18(%r14),%rdi
    18e6:	je     1920 <unlazy_walk+0x160>
spin_unlock():
/home/lookfiresu/Desktop/my_linux-3.13.0/include/linux/spinlock.h:333
	raw_spin_lock_irqsave_nested(spinlock_check(lock), flags, subclass); \
} while (0)

static inline void spin_unlock(spinlock_t *lock)
{
	raw_spin_unlock(&lock->rlock);
    18e8:	mov    %r13,%rdi
    18eb:	callq  18f0 <unlazy_walk+0x130>
unlazy_walk():
/home/lookfiresu/Desktop/my_linux-3.13.0/fs/namei.c:579
	spin_unlock(&fs->lock);
drop_dentry:
	rcu_read_unlock();
	dput(dentry);
	goto drop_root_mnt;
out:
    18f0:	mov    %r12,%rdi
    18f3:	callq  18f8 <unlazy_walk+0x138>
/home/lookfiresu/Desktop/my_linux-3.13.0/fs/namei.c:580
	rcu_read_unlock();
    18f8:	jmpq   185e <unlazy_walk+0x9e>
    18fd:	nopl   (%rax)
/home/lookfiresu/Desktop/my_linux-3.13.0/fs/namei.c:550
	 * be valid if the child sequence number is still valid.
	 */
	if (!dentry) {
		if (read_seqcount_retry(&parent->d_seq, nd->seq))
			goto out;
		BUG_ON(nd->inode != parent->d_inode);
    1900:	mov    0x3c(%rbx),%eax
    1903:	cmp    0x4(%r13),%eax
    1907:	jne    185e <unlazy_walk+0x9e>
/home/lookfiresu/Desktop/my_linux-3.13.0/fs/namei.c:552
	} else {
		if (!lockref_get_not_dead(&dentry->d_lockref))
    190d:	mov    0x30(%r13),%rax
    1911:	cmp    %rax,0x30(%rbx)
    1915:	je     18ba <unlazy_walk+0xfa>
/home/lookfiresu/Desktop/my_linux-3.13.0/fs/namei.c:552 (discriminator 1)
    1917:	ud2    
    1919:	nopl   0x0(%rax)
/home/lookfiresu/Desktop/my_linux-3.13.0/fs/namei.c:566 (discriminator 1)
	 */
	if (nd->root.mnt && !(nd->flags & LOOKUP_ROOT)) {
		spin_lock(&fs->lock);
		if (nd->root.mnt != fs->root.mnt || nd->root.dentry != fs->root.dentry)
			goto unlock_and_drop_dentry;
		path_get(&nd->root);
    1920:	mov    0x20(%r14),%rax
    1924:	cmp    %rax,0x28(%rbx)
    1928:	jne    18e8 <unlazy_walk+0x128>
path_get():
/home/lookfiresu/Desktop/my_linux-3.13.0/fs/namei.c:475
 */
void path_get(const struct path *path)
{
	mntget(path->mnt);
	dget(path->dentry);
}
    192a:	callq  192f <unlazy_walk+0x16f>
get_current():
/home/lookfiresu/Desktop/my_linux-3.13.0/arch/x86/include/asm/current.h:19

DECLARE_PER_CPU(struct task_struct *, current_task);

static __always_inline struct task_struct *get_current(void)
{
	return this_cpu_read_stable(current_task);
    192f:	mov    %gs:0x0,%rdx
path_get():
/home/lookfiresu/Desktop/my_linux-3.13.0/fs/namei.c:476
EXPORT_SYMBOL(path_get);
    1938:	mov    0x28(%rbx),%rbx
dget():
/home/lookfiresu/Desktop/my_linux-3.13.0/include/linux/dcache.h:360
    193c:	add    $0x4a8,%rdx
    1943:	mov    $0x0,%rax
    194a:	jmp    1950 <unlazy_walk+0x190>
my_strcmp():
/home/lookfiresu/Desktop/my_linux-3.13.0/include/linux/interactive_design.h:15
			return c1 < c2 ? -1 : 1;
		if (!c1)
    194c:	test   %cl,%cl
    194e:	je     19b2 <unlazy_walk+0x1f2>
/home/lookfiresu/Desktop/my_linux-3.13.0/include/linux/interactive_design.h:11

static int my_strcmp(const char *cs, const char *ct) {
	unsigned char c1, c2;

	while (1) {
		c1 = *cs++;
    1950:	add    $0x1,%rdx
    1954:	movzbl -0x1(%rdx),%ecx
/home/lookfiresu/Desktop/my_linux-3.13.0/include/linux/interactive_design.h:12
		c2 = *ct++;
    1958:	add    $0x1,%rax
/home/lookfiresu/Desktop/my_linux-3.13.0/include/linux/interactive_design.h:13
		if (c1 != c2)
    195c:	cmp    -0x1(%rax),%cl
    195f:	je     194c <unlazy_walk+0x18c>
get_current():
/home/lookfiresu/Desktop/my_linux-3.13.0/arch/x86/include/asm/current.h:19
    1961:	mov    %gs:0x0,%rdx
dget():
/home/lookfiresu/Desktop/my_linux-3.13.0/include/linux/dcache.h:360
    196a:	mov    $0x0,%rax
    1971:	add    $0x4a8,%rdx
    1978:	jmp    1984 <unlazy_walk+0x1c4>
    197a:	nopw   0x0(%rax,%rax,1)
my_strcmp():
/home/lookfiresu/Desktop/my_linux-3.13.0/include/linux/interactive_design.h:15
			return c1 < c2 ? -1 : 1;
		if (!c1)
    1980:	test   %cl,%cl
    1982:	je     19b2 <unlazy_walk+0x1f2>
/home/lookfiresu/Desktop/my_linux-3.13.0/include/linux/interactive_design.h:11

static int my_strcmp(const char *cs, const char *ct) {
	unsigned char c1, c2;

	while (1) {
		c1 = *cs++;
    1984:	add    $0x1,%rdx
    1988:	movzbl -0x1(%rdx),%ecx
/home/lookfiresu/Desktop/my_linux-3.13.0/include/linux/interactive_design.h:12
		c2 = *ct++;
    198c:	add    $0x1,%rax
/home/lookfiresu/Desktop/my_linux-3.13.0/include/linux/interactive_design.h:13
		if (c1 != c2)
    1990:	cmp    -0x1(%rax),%cl
    1993:	je     1980 <unlazy_walk+0x1c0>
dget():
/home/lookfiresu/Desktop/my_linux-3.13.0/include/linux/dcache.h:361
	if (dentry)
    1995:	test   %rbx,%rbx
    1998:	je     19a3 <unlazy_walk+0x1e3>
/home/lookfiresu/Desktop/my_linux-3.13.0/include/linux/dcache.h:362
		lockref_get(&dentry->d_lockref);
    199a:	lea    0x58(%rbx),%rdi
    199e:	callq  19a3 <unlazy_walk+0x1e3>
spin_unlock():
/home/lookfiresu/Desktop/my_linux-3.13.0/include/linux/spinlock.h:333
    19a3:	mov    %r13,%rdi
    19a6:	callq  19ab <unlazy_walk+0x1eb>
unlazy_walk():
/home/lookfiresu/Desktop/my_linux-3.13.0/fs/namei.c:573
	}

	rcu_read_unlock();
	return 0;

unlock_and_drop_dentry:
    19ab:	xor    %eax,%eax
    19ad:	jmpq   18c9 <unlazy_walk+0x109>
get_current():
/home/lookfiresu/Desktop/my_linux-3.13.0/arch/x86/include/asm/current.h:19
    19b2:	mov    %gs:0x0,%rdx
dget():
/home/lookfiresu/Desktop/my_linux-3.13.0/include/linux/dcache.h:360
	return dentry;
}

static inline struct dentry *dget(struct dentry *dentry)
{
  MY_PRINTK(get_current()->comm);
    19bb:	mov    $0x0,%rsi
    19c2:	add    $0x4a8,%rdx
    19c9:	mov    $0x0,%rdi
    19d0:	xor    %eax,%eax
    19d2:	callq  19d7 <unlazy_walk+0x217>
    19d7:	jmp    1995 <unlazy_walk+0x1d5>
unlazy_walk():
/home/lookfiresu/Desktop/my_linux-3.13.0/fs/namei.c:519 (discriminator 1)
	struct fs_struct *fs = current->fs;
	struct dentry *parent = nd->path.dentry;

	BUG_ON(!(nd->flags & LOOKUP_RCU));

	/*
    19d9:	ud2    
    19db:	nopl   0x0(%rax,%rax,1)

00000000000019e0 <lookup_fast>:
lookup_fast():
/home/lookfiresu/Desktop/my_linux-3.13.0/fs/namei.c:1370
	int err;

	/*
	 * Rename seqlock is not required here because in the off chance
	 * of a false negative due to a concurrent rename, we're going to
	 * do the non-racy lookup, below.
    19e0:	callq  19e5 <lookup_fast+0x5>
    19e5:	push   %rbp
    19e6:	mov    %rsp,%rbp
    19e9:	push   %r15
    19eb:	push   %r14
    19ed:	mov    %rdi,%r14
    19f0:	push   %r13
    19f2:	push   %r12
    19f4:	mov    %rdx,%r12
    19f7:	push   %rbx
    19f8:	mov    %rsi,%rbx
/home/lookfiresu/Desktop/my_linux-3.13.0/fs/namei.c:1384
		 * This sequence count validates that the inode matches
		 * the dentry name information from lookup.
		 */
		*inode = dentry->d_inode;
		if (read_seqcount_retry(&dentry->d_seq, seq))
			return -ECHILD;
    19fb:	lea    0x10(%rdi),%rsi
/home/lookfiresu/Desktop/my_linux-3.13.0/fs/namei.c:1370
	int err;

	/*
	 * Rename seqlock is not required here because in the off chance
	 * of a false negative due to a concurrent rename, we're going to
	 * do the non-racy lookup, below.
    19ff:	sub    $0x18,%rsp
/home/lookfiresu/Desktop/my_linux-3.13.0/fs/namei.c:1382

		/*
		 * This sequence count validates that the inode matches
		 * the dentry name information from lookup.
		 */
		*inode = dentry->d_inode;
    1a03:	testb  $0x40,0x38(%rdi)
/home/lookfiresu/Desktop/my_linux-3.13.0/fs/namei.c:1371

	/*
	 * Rename seqlock is not required here because in the off chance
	 * of a false negative due to a concurrent rename, we're going to
	 * do the non-racy lookup, below.
	 */
    1a07:	mov    (%rdi),%rax
/home/lookfiresu/Desktop/my_linux-3.13.0/fs/namei.c:1372
	if (nd->flags & LOOKUP_RCU) {
    1a0a:	mov    0x8(%rdi),%r15
/home/lookfiresu/Desktop/my_linux-3.13.0/fs/namei.c:1371

	/*
	 * Rename seqlock is not required here because in the off chance
	 * of a false negative due to a concurrent rename, we're going to
	 * do the non-racy lookup, below.
	 */
    1a0e:	mov    %rax,-0x38(%rbp)
/home/lookfiresu/Desktop/my_linux-3.13.0/fs/namei.c:1382

		/*
		 * This sequence count validates that the inode matches
		 * the dentry name information from lookup.
		 */
		*inode = dentry->d_inode;
    1a12:	je     1b30 <lookup_fast+0x150>
/home/lookfiresu/Desktop/my_linux-3.13.0/fs/namei.c:1384
		if (read_seqcount_retry(&dentry->d_seq, seq))
			return -ECHILD;
    1a18:	lea    -0x2c(%rbp),%rdx
    1a1c:	mov    %r15,%rdi
    1a1f:	callq  1a24 <lookup_fast+0x44>
/home/lookfiresu/Desktop/my_linux-3.13.0/fs/namei.c:1385

    1a24:	test   %rax,%rax
/home/lookfiresu/Desktop/my_linux-3.13.0/fs/namei.c:1384
		 * This sequence count validates that the inode matches
		 * the dentry name information from lookup.
		 */
		*inode = dentry->d_inode;
		if (read_seqcount_retry(&dentry->d_seq, seq))
			return -ECHILD;
    1a27:	mov    %rax,%r13
/home/lookfiresu/Desktop/my_linux-3.13.0/fs/namei.c:1385

    1a2a:	je     1beb <lookup_fast+0x20b>
/home/lookfiresu/Desktop/my_linux-3.13.0/fs/namei.c:1392
		 * This sequence count validates that the parent had no
		 * changes while we did the lookup of the dentry above.
		 *
		 * The memory barrier in read_seqcount_begin of child is
		 *  enough, we can use __read_seqcount_retry here.
		 */
    1a30:	mov    0x30(%rax),%rax
    1a34:	mov    %rax,(%r12)
/home/lookfiresu/Desktop/my_linux-3.13.0/fs/namei.c:1393
		if (__read_seqcount_retry(&parent->d_seq, nd->seq))
    1a38:	mov    -0x2c(%rbp),%eax
    1a3b:	cmp    0x4(%r13),%eax
    1a3f:	jne    1bd6 <lookup_fast+0x1f6>
/home/lookfiresu/Desktop/my_linux-3.13.0/fs/namei.c:1403
			status = d_revalidate(dentry, nd->flags);
			if (unlikely(status <= 0)) {
				if (status != -ECHILD)
					need_reval = 0;
				goto unlazy;
			}
    1a45:	mov    0x4(%r15),%eax
    1a49:	cmp    %eax,0x3c(%r14)
    1a4d:	jne    1bd6 <lookup_fast+0x1f6>
/home/lookfiresu/Desktop/my_linux-3.13.0/fs/namei.c:1405
		}
		path->mnt = mnt;
    1a53:	mov    -0x2c(%rbp),%eax
    1a56:	mov    %eax,0x3c(%r14)
/home/lookfiresu/Desktop/my_linux-3.13.0/fs/namei.c:1407
		path->dentry = dentry;
		if (unlikely(!__follow_mount_rcu(nd, path, inode)))
    1a5a:	testb  $0x4,0x0(%r13)
    1a5f:	jne    1c75 <lookup_fast+0x295>
/home/lookfiresu/Desktop/my_linux-3.13.0/fs/namei.c:1374
	 * of a false negative due to a concurrent rename, we're going to
	 * do the non-racy lookup, below.
	 */
	if (nd->flags & LOOKUP_RCU) {
		unsigned seq;
		dentry = __d_lookup_rcu(parent, &nd->last, &seq);
    1a65:	mov    $0x1,%r15d
/home/lookfiresu/Desktop/my_linux-3.13.0/fs/namei.c:1415
			goto unlazy;
		return 0;
unlazy:
		if (unlazy_walk(nd, dentry))
			return -ECHILD;
	} else {
    1a6b:	mov    -0x38(%rbp),%rax
/home/lookfiresu/Desktop/my_linux-3.13.0/fs/namei.c:1416
		dentry = __d_lookup(parent, &nd->last);
    1a6f:	mov    %r13,0x8(%rbx)
    1a73:	mov    %r13,%rdi
/home/lookfiresu/Desktop/my_linux-3.13.0/fs/namei.c:1415
			goto unlazy;
		return 0;
unlazy:
		if (unlazy_walk(nd, dentry))
			return -ECHILD;
	} else {
    1a76:	mov    %rax,(%rbx)
    1a79:	jmp    1ada <lookup_fast+0xfa>
    1a7b:	nopl   0x0(%rax,%rax,1)
__follow_mount_rcu():
/home/lookfiresu/Desktop/my_linux-3.13.0/fs/namei.c:1124
			break;

		mounted = __lookup_mnt(path->mnt, path->dentry);
		if (!mounted)
			break;
		path->mnt = &mounted->mnt;
    1a80:	test   $0x10000,%edx
    1a86:	je     1b10 <lookup_fast+0x130>
/home/lookfiresu/Desktop/my_linux-3.13.0/fs/namei.c:1127
		path->dentry = mounted->mnt.mnt_root;
		nd->flags |= LOOKUP_JUMPED;
		nd->seq = read_seqcount_begin(&path->dentry->d_seq);
    1a8c:	mov    %rdi,%rsi
    1a8f:	mov    (%rbx),%rdi
    1a92:	callq  1a97 <lookup_fast+0xb7>
/home/lookfiresu/Desktop/my_linux-3.13.0/fs/namei.c:1128
		/*
    1a97:	test   %rax,%rax
    1a9a:	je     1be0 <lookup_fast+0x200>
/home/lookfiresu/Desktop/my_linux-3.13.0/fs/namei.c:1130
		 * Update the inode too. We don't need to re-check the
		 * dentry sequence number here after this d_inode read,
    1aa0:	lea    0x20(%rax),%rdx
    1aa4:	mov    %rdx,(%rbx)
/home/lookfiresu/Desktop/my_linux-3.13.0/fs/namei.c:1131
		 * because a mount-point is always pinned.
    1aa7:	mov    0x20(%rax),%rax
    1aab:	mov    %rax,0x8(%rbx)
/home/lookfiresu/Desktop/my_linux-3.13.0/fs/namei.c:1132
		 */
    1aaf:	orl    $0x1000,0x38(%r14)
/home/lookfiresu/Desktop/my_linux-3.13.0/fs/namei.c:1133
		*inode = path->dentry->d_inode;
    1ab7:	mov    0x8(%rbx),%rdx
__read_seqcount_begin():
/home/lookfiresu/Desktop/my_linux-3.13.0/include/linux/seqlock.h:112
static inline unsigned __read_seqcount_begin(const seqcount_t *s)
{
	unsigned ret;

repeat:
	ret = ACCESS_ONCE(s->sequence);
    1abb:	mov    0x4(%rdx),%eax
/home/lookfiresu/Desktop/my_linux-3.13.0/include/linux/seqlock.h:113
	if (unlikely(ret & 1)) {
    1abe:	test   $0x1,%al
    1ac0:	jne    1bf8 <lookup_fast+0x218>
__follow_mount_rcu():
/home/lookfiresu/Desktop/my_linux-3.13.0/fs/namei.c:1133
    1ac6:	mov    %eax,0x3c(%r14)
/home/lookfiresu/Desktop/my_linux-3.13.0/fs/namei.c:1139
	}
	return true;
}

static void follow_mount_rcu(struct nameidata *nd)
{
    1aca:	mov    0x8(%rbx),%rax
    1ace:	mov    0x30(%rax),%rax
    1ad2:	mov    %rax,(%r12)
    1ad6:	mov    0x8(%rbx),%rdi
managed_dentry_might_block():
/home/lookfiresu/Desktop/my_linux-3.13.0/fs/namei.c:1104
	return (dentry->d_flags & DCACHE_MANAGE_TRANSIT &&
		dentry->d_op->d_manage(dentry, true) < 0);
}

/*
 * Try to skip to top of mountpoint pile in rcuwalk mode.  Fail if
    1ada:	mov    (%rdi),%edx
    1adc:	test   $0x40000,%edx
    1ae2:	je     1a80 <lookup_fast+0xa0>
/home/lookfiresu/Desktop/my_linux-3.13.0/fs/namei.c:1105
 * we meet a managed dentry that would need blocking.
    1ae4:	mov    0x60(%rdi),%rdx
    1ae8:	mov    $0x1,%esi
    1aed:	callq  *0x50(%rdx)
/home/lookfiresu/Desktop/my_linux-3.13.0/fs/namei.c:1104
	return (dentry->d_flags & DCACHE_MANAGE_TRANSIT &&
		dentry->d_op->d_manage(dentry, true) < 0);
}

/*
 * Try to skip to top of mountpoint pile in rcuwalk mode.  Fail if
    1af0:	test   %eax,%eax
    1af2:	js     1bb8 <lookup_fast+0x1d8>
    1af8:	mov    0x8(%rbx),%rdi
    1afc:	mov    (%rdi),%edx
__follow_mount_rcu():
/home/lookfiresu/Desktop/my_linux-3.13.0/fs/namei.c:1124
			break;

		mounted = __lookup_mnt(path->mnt, path->dentry);
		if (!mounted)
			break;
		path->mnt = &mounted->mnt;
    1afe:	test   $0x10000,%edx
    1b04:	jne    1a8c <lookup_fast+0xac>
    1b06:	nopw   %cs:0x0(%rax,%rax,1)
lookup_fast():
/home/lookfiresu/Desktop/my_linux-3.13.0/fs/namei.c:1419
			return -ECHILD;
	} else {
		dentry = __d_lookup(parent, &nd->last);
	}

	if (unlikely(!dentry))
    1b10:	and    $0x20000,%edx
    1b16:	jne    1bb8 <lookup_fast+0x1d8>
/home/lookfiresu/Desktop/my_linux-3.13.0/fs/namei.c:1459
	struct dentry *dentry, *parent;
	int err;

	parent = nd->path.dentry;
	BUG_ON(nd->inode != parent->d_inode);

    1b1c:	add    $0x18,%rsp
/home/lookfiresu/Desktop/my_linux-3.13.0/fs/namei.c:1421
		dentry = __d_lookup(parent, &nd->last);
	}

	if (unlikely(!dentry))
		goto need_lookup;

    1b20:	xor    %eax,%eax
/home/lookfiresu/Desktop/my_linux-3.13.0/fs/namei.c:1459
	struct dentry *dentry, *parent;
	int err;

	parent = nd->path.dentry;
	BUG_ON(nd->inode != parent->d_inode);

    1b22:	pop    %rbx
    1b23:	pop    %r12
    1b25:	pop    %r13
    1b27:	pop    %r14
    1b29:	pop    %r15
    1b2b:	pop    %rbp
    1b2c:	retq   
    1b2d:	nopl   (%rax)
/home/lookfiresu/Desktop/my_linux-3.13.0/fs/namei.c:1426

	if (unlikely(dentry->d_flags & DCACHE_OP_REVALIDATE) && need_reval)
		status = d_revalidate(dentry, nd->flags);
	if (unlikely(status <= 0)) {
		if (status < 0) {
			dput(dentry);
    1b30:	mov    %r15,%rdi
/home/lookfiresu/Desktop/my_linux-3.13.0/fs/namei.c:1374
	 * of a false negative due to a concurrent rename, we're going to
	 * do the non-racy lookup, below.
	 */
	if (nd->flags & LOOKUP_RCU) {
		unsigned seq;
		dentry = __d_lookup_rcu(parent, &nd->last, &seq);
    1b33:	mov    $0x1,%r15d
/home/lookfiresu/Desktop/my_linux-3.13.0/fs/namei.c:1426

	if (unlikely(dentry->d_flags & DCACHE_OP_REVALIDATE) && need_reval)
		status = d_revalidate(dentry, nd->flags);
	if (unlikely(status <= 0)) {
		if (status < 0) {
			dput(dentry);
    1b39:	callq  1b3e <lookup_fast+0x15e>
/home/lookfiresu/Desktop/my_linux-3.13.0/fs/namei.c:1373
	 * Rename seqlock is not required here because in the off chance
	 * of a false negative due to a concurrent rename, we're going to
	 * do the non-racy lookup, below.
	 */
	if (nd->flags & LOOKUP_RCU) {
		unsigned seq;
    1b3e:	mov    $0x1,%edx
/home/lookfiresu/Desktop/my_linux-3.13.0/fs/namei.c:1426

	if (unlikely(dentry->d_flags & DCACHE_OP_REVALIDATE) && need_reval)
		status = d_revalidate(dentry, nd->flags);
	if (unlikely(status <= 0)) {
		if (status < 0) {
			dput(dentry);
    1b43:	mov    %rax,%r13
/home/lookfiresu/Desktop/my_linux-3.13.0/fs/namei.c:1429
			return status;
		}
		if (!d_invalidate(dentry)) {
    1b46:	test   %r13,%r13
    1b49:	je     1c6b <lookup_fast+0x28b>
/home/lookfiresu/Desktop/my_linux-3.13.0/fs/namei.c:1432
			dput(dentry);
			goto need_lookup;
		}
    1b4f:	testb  $0x4,0x0(%r13)
    1b54:	jne    1c41 <lookup_fast+0x261>
/home/lookfiresu/Desktop/my_linux-3.13.0/fs/namei.c:1434
	}

    1b5a:	cmp    $0x0,%r15d
    1b5e:	jle    1c1d <lookup_fast+0x23d>
/home/lookfiresu/Desktop/my_linux-3.13.0/fs/namei.c:1445
		return err;
	}
	if (err)
		nd->flags |= LOOKUP_JUMPED;
	*inode = path->dentry->d_inode;
	return 0;
    1b64:	mov    -0x38(%rbp),%rax
/home/lookfiresu/Desktop/my_linux-3.13.0/fs/namei.c:1446

    1b68:	mov    %r13,0x8(%rbx)
/home/lookfiresu/Desktop/my_linux-3.13.0/fs/namei.c:1447
need_lookup:
    1b6c:	mov    %rbx,%rdi
/home/lookfiresu/Desktop/my_linux-3.13.0/fs/namei.c:1445
		return err;
	}
	if (err)
		nd->flags |= LOOKUP_JUMPED;
	*inode = path->dentry->d_inode;
	return 0;
    1b6f:	mov    %rax,(%rbx)
/home/lookfiresu/Desktop/my_linux-3.13.0/fs/namei.c:1447

need_lookup:
    1b72:	mov    0x38(%r14),%esi
    1b76:	callq  4f0 <follow_managed>
/home/lookfiresu/Desktop/my_linux-3.13.0/fs/namei.c:1448
	return 1;
    1b7b:	test   %eax,%eax
    1b7d:	js     1c07 <lookup_fast+0x227>
/home/lookfiresu/Desktop/my_linux-3.13.0/fs/namei.c:1452
}

/* Fast lookup failed, do it the slow way */
static int lookup_slow(struct nameidata *nd, struct path *path)
    1b83:	jne    1ba8 <lookup_fast+0x1c8>
/home/lookfiresu/Desktop/my_linux-3.13.0/fs/namei.c:1454
{
	struct dentry *dentry, *parent;
    1b85:	mov    0x8(%rbx),%rax
    1b89:	mov    0x30(%rax),%rax
    1b8d:	mov    %rax,(%r12)
/home/lookfiresu/Desktop/my_linux-3.13.0/fs/namei.c:1455
	int err;
    1b91:	xor    %eax,%eax
/home/lookfiresu/Desktop/my_linux-3.13.0/fs/namei.c:1459

	parent = nd->path.dentry;
	BUG_ON(nd->inode != parent->d_inode);

    1b93:	add    $0x18,%rsp
    1b97:	pop    %rbx
    1b98:	pop    %r12
    1b9a:	pop    %r13
    1b9c:	pop    %r14
    1b9e:	pop    %r15
    1ba0:	pop    %rbp
    1ba1:	retq   
    1ba2:	nopw   0x0(%rax,%rax,1)
/home/lookfiresu/Desktop/my_linux-3.13.0/fs/namei.c:1453
	return 1;
}

/* Fast lookup failed, do it the slow way */
static int lookup_slow(struct nameidata *nd, struct path *path)
{
    1ba8:	orl    $0x1000,0x38(%r14)
    1bb0:	jmp    1b85 <lookup_fast+0x1a5>
    1bb2:	nopw   0x0(%rax,%rax,1)
/home/lookfiresu/Desktop/my_linux-3.13.0/fs/namei.c:1373
	 * Rename seqlock is not required here because in the off chance
	 * of a false negative due to a concurrent rename, we're going to
	 * do the non-racy lookup, below.
	 */
	if (nd->flags & LOOKUP_RCU) {
		unsigned seq;
    1bb8:	mov    $0x1,%edx
/home/lookfiresu/Desktop/my_linux-3.13.0/fs/namei.c:1423

	if (unlikely(!dentry))
		goto need_lookup;

	if (unlikely(dentry->d_flags & DCACHE_OP_REVALIDATE) && need_reval)
		status = d_revalidate(dentry, nd->flags);
    1bbd:	mov    %r13,%rsi
    1bc0:	mov    %r14,%rdi
    1bc3:	mov    %edx,-0x3c(%rbp)
    1bc6:	callq  17c0 <unlazy_walk>
    1bcb:	test   %eax,%eax
    1bcd:	mov    -0x3c(%rbp),%edx
    1bd0:	je     1b46 <lookup_fast+0x166>
/home/lookfiresu/Desktop/my_linux-3.13.0/fs/namei.c:1394
		 *
		 * The memory barrier in read_seqcount_begin of child is
		 *  enough, we can use __read_seqcount_retry here.
		 */
		if (__read_seqcount_retry(&parent->d_seq, nd->seq))
			return -ECHILD;
    1bd6:	mov    $0xfffffff6,%eax
    1bdb:	jmp    1b93 <lookup_fast+0x1b3>
    1bdd:	nopl   (%rax)
    1be0:	mov    0x8(%rbx),%rax
    1be4:	mov    (%rax),%edx
    1be6:	jmpq   1b10 <lookup_fast+0x130>
/home/lookfiresu/Desktop/my_linux-3.13.0/fs/namei.c:1374
	 * of a false negative due to a concurrent rename, we're going to
	 * do the non-racy lookup, below.
	 */
	if (nd->flags & LOOKUP_RCU) {
		unsigned seq;
		dentry = __d_lookup_rcu(parent, &nd->last, &seq);
    1beb:	mov    $0x1,%r15d
/home/lookfiresu/Desktop/my_linux-3.13.0/fs/namei.c:1373
	 * Rename seqlock is not required here because in the off chance
	 * of a false negative due to a concurrent rename, we're going to
	 * do the non-racy lookup, below.
	 */
	if (nd->flags & LOOKUP_RCU) {
		unsigned seq;
    1bf1:	mov    $0x1,%edx
    1bf6:	jmp    1bbd <lookup_fast+0x1dd>
rep_nop():
/home/lookfiresu/Desktop/my_linux-3.13.0/arch/x86/include/asm/processor.h:665
}

/* REP NOP (PAUSE) is a good thing to insert into busy-wait loops. */
static inline void rep_nop(void)
{
	asm volatile("rep; nop" ::: "memory");
    1bf8:	pause  
__read_seqcount_begin():
/home/lookfiresu/Desktop/my_linux-3.13.0/include/linux/seqlock.h:112
static inline unsigned __read_seqcount_begin(const seqcount_t *s)
{
	unsigned ret;

repeat:
	ret = ACCESS_ONCE(s->sequence);
    1bfa:	mov    0x4(%rdx),%eax
/home/lookfiresu/Desktop/my_linux-3.13.0/include/linux/seqlock.h:113
	if (unlikely(ret & 1)) {
    1bfd:	test   $0x1,%al
    1bff:	je     1ac6 <lookup_fast+0xe6>
    1c05:	jmp    1bf8 <lookup_fast+0x218>
lookup_fast():
/home/lookfiresu/Desktop/my_linux-3.13.0/fs/namei.c:1449
	*inode = path->dentry->d_inode;
	return 0;

need_lookup:
	return 1;
}
    1c07:	mov    %r14,%rsi
    1c0a:	mov    %rbx,%rdi
    1c0d:	mov    %eax,-0x38(%rbp)
    1c10:	callq  d10 <path_put_conditional.isra.13>
/home/lookfiresu/Desktop/my_linux-3.13.0/fs/namei.c:1450

    1c15:	mov    -0x38(%rbp),%eax
    1c18:	jmpq   1b93 <lookup_fast+0x1b3>
/home/lookfiresu/Desktop/my_linux-3.13.0/fs/namei.c:1436
			goto need_lookup;
		}
	}

	path->mnt = mnt;
	path->dentry = dentry;
    1c1d:	mov    %r13,%rdi
/home/lookfiresu/Desktop/my_linux-3.13.0/fs/namei.c:1435
			dput(dentry);
			goto need_lookup;
		}
	}

	path->mnt = mnt;
    1c20:	jne    1c5e <lookup_fast+0x27e>
/home/lookfiresu/Desktop/my_linux-3.13.0/fs/namei.c:1439
	path->dentry = dentry;
	err = follow_managed(path, nd->flags);
	if (unlikely(err < 0)) {
		path_put_conditional(path, nd);
    1c22:	callq  1c27 <lookup_fast+0x247>
    1c27:	test   %eax,%eax
    1c29:	jne    1b64 <lookup_fast+0x184>
/home/lookfiresu/Desktop/my_linux-3.13.0/fs/namei.c:1440
		return err;
    1c2f:	mov    %r13,%rdi
    1c32:	callq  1c37 <lookup_fast+0x257>
/home/lookfiresu/Desktop/my_linux-3.13.0/fs/namei.c:1458
{
	struct dentry *dentry, *parent;
	int err;

	parent = nd->path.dentry;
	BUG_ON(nd->inode != parent->d_inode);
    1c37:	mov    $0x1,%eax
/home/lookfiresu/Desktop/my_linux-3.13.0/fs/namei.c:1441
	path->dentry = dentry;
	err = follow_managed(path, nd->flags);
	if (unlikely(err < 0)) {
		path_put_conditional(path, nd);
		return err;
	}
    1c3c:	jmpq   1b93 <lookup_fast+0x1b3>
/home/lookfiresu/Desktop/my_linux-3.13.0/fs/namei.c:1432 (discriminator 1)
			return status;
		}
		if (!d_invalidate(dentry)) {
			dput(dentry);
			goto need_lookup;
		}
    1c41:	test   %edx,%edx
    1c43:	je     1b5a <lookup_fast+0x17a>
d_revalidate():
/home/lookfiresu/Desktop/my_linux-3.13.0/fs/namei.c:591

static inline int d_revalidate(struct dentry *dentry, unsigned int flags)
{
	return dentry->d_op->d_revalidate(dentry, flags);
}

    1c49:	mov    0x60(%r13),%rax
    1c4d:	mov    0x38(%r14),%esi
    1c51:	mov    %r13,%rdi
    1c54:	callq  *(%rax)
    1c56:	mov    %eax,%r15d
    1c59:	jmpq   1b5a <lookup_fast+0x17a>
lookup_fast():
/home/lookfiresu/Desktop/my_linux-3.13.0/fs/namei.c:1436
			goto need_lookup;
		}
	}

	path->mnt = mnt;
	path->dentry = dentry;
    1c5e:	callq  1c63 <lookup_fast+0x283>
/home/lookfiresu/Desktop/my_linux-3.13.0/fs/namei.c:1437
	err = follow_managed(path, nd->flags);
    1c63:	mov    %r15d,%eax
    1c66:	jmpq   1b93 <lookup_fast+0x1b3>
/home/lookfiresu/Desktop/my_linux-3.13.0/fs/namei.c:1458
{
	struct dentry *dentry, *parent;
	int err;

	parent = nd->path.dentry;
	BUG_ON(nd->inode != parent->d_inode);
    1c6b:	mov    $0x1,%eax
    1c70:	jmpq   1b93 <lookup_fast+0x1b3>
d_revalidate():
/home/lookfiresu/Desktop/my_linux-3.13.0/fs/namei.c:591

static inline int d_revalidate(struct dentry *dentry, unsigned int flags)
{
	return dentry->d_op->d_revalidate(dentry, flags);
}

    1c75:	mov    0x60(%r13),%rax
    1c79:	mov    0x38(%r14),%esi
    1c7d:	mov    %r13,%rdi
    1c80:	callq  *(%rax)
lookup_fast():
/home/lookfiresu/Desktop/my_linux-3.13.0/fs/namei.c:1409
		}
		path->mnt = mnt;
		path->dentry = dentry;
		if (unlikely(!__follow_mount_rcu(nd, path, inode)))
			goto unlazy;
		if (unlikely(path->dentry->d_flags & DCACHE_NEED_AUTOMOUNT))
    1c82:	test   %eax,%eax
d_revalidate():
/home/lookfiresu/Desktop/my_linux-3.13.0/fs/namei.c:591

static inline int d_revalidate(struct dentry *dentry, unsigned int flags)
{
	return dentry->d_op->d_revalidate(dentry, flags);
}

    1c84:	mov    %eax,%r15d
lookup_fast():
/home/lookfiresu/Desktop/my_linux-3.13.0/fs/namei.c:1409
		}
		path->mnt = mnt;
		path->dentry = dentry;
		if (unlikely(!__follow_mount_rcu(nd, path, inode)))
			goto unlazy;
		if (unlikely(path->dentry->d_flags & DCACHE_NEED_AUTOMOUNT))
    1c87:	jg     1a6b <lookup_fast+0x8b>
/home/lookfiresu/Desktop/my_linux-3.13.0/fs/namei.c:1410
			goto unlazy;
    1c8d:	xor    %edx,%edx
    1c8f:	cmp    $0xfffffff6,%eax
    1c92:	sete   %dl
    1c95:	jmpq   1bbd <lookup_fast+0x1dd>
    1c9a:	nopw   0x0(%rax,%rax,1)

0000000000001ca0 <handle_dots>:
handle_dots():
/home/lookfiresu/Desktop/my_linux-3.13.0/fs/namei.c:1508
	if (!(nd->flags & LOOKUP_RCU)) {
		path_put(&nd->path);
	} else {
		nd->flags &= ~LOOKUP_RCU;
		if (!(nd->flags & LOOKUP_ROOT))
			nd->root.mnt = NULL;
    1ca0:	xor    %eax,%eax
/home/lookfiresu/Desktop/my_linux-3.13.0/fs/namei.c:1501
			follow_dotdot(nd);
	}
	return 0;
}

static void terminate_walk(struct nameidata *nd)
    1ca2:	cmp    $0x3,%esi
    1ca5:	je     1cb0 <handle_dots+0x10>
/home/lookfiresu/Desktop/my_linux-3.13.0/fs/namei.c:1509
		path_put(&nd->path);
	} else {
		nd->flags &= ~LOOKUP_RCU;
		if (!(nd->flags & LOOKUP_ROOT))
			nd->root.mnt = NULL;
		rcu_read_unlock();
    1ca7:	retq   
    1ca8:	nopl   0x0(%rax,%rax,1)
/home/lookfiresu/Desktop/my_linux-3.13.0/fs/namei.c:1500
		} else
			follow_dotdot(nd);
	}
	return 0;
}

    1cb0:	push   %rbp
    1cb1:	mov    %rsp,%rbp
    1cb4:	push   %r13
    1cb6:	push   %r12
    1cb8:	push   %rbx
/home/lookfiresu/Desktop/my_linux-3.13.0/fs/namei.c:1502
static void terminate_walk(struct nameidata *nd)
{
    1cb9:	testb  $0x40,0x38(%rdi)
    1cbd:	mov    %rdi,%rbx
    1cc0:	je     1da0 <handle_dots+0x100>
set_root_rcu():
/home/lookfiresu/Desktop/my_linux-3.13.0/fs/namei.c:659

static __always_inline void set_root_rcu(struct nameidata *nd)
{
	if (!nd->root.mnt) {
		struct fs_struct *fs = current->fs;
		unsigned seq;
    1cc6:	cmpq   $0x0,0x20(%rdi)
    1ccb:	jne    1d07 <handle_dots+0x67>
    1ccd:	jmpq   1e16 <handle_dots+0x176>
    1cd2:	nopw   0x0(%rax,%rax,1)
follow_dotdot_rcu():
/home/lookfiresu/Desktop/my_linux-3.13.0/fs/namei.c:1166
			struct dentry *old = nd->path.dentry;
			struct dentry *parent = old->d_parent;
			unsigned seq;

			seq = read_seqcount_begin(&parent->d_seq);
			if (read_seqcount_retry(&old->d_seq, nd->seq))
    1cd8:	cmp    (%rax),%rsi
    1cdb:	jne    1d20 <handle_dots+0x80>
follow_up_rcu():
/home/lookfiresu/Desktop/my_linux-3.13.0/fs/namei.c:900
	parent = mnt->mnt_parent;
	if (&parent->mnt == path->mnt)
		return 0;
	mountpoint = mnt->mnt_mountpoint;
	path->dentry = mountpoint;
	path->mnt = &parent->mnt;
    1cdd:	mov    -0x10(%rax),%rdi
    1ce1:	lea    0x20(%rdi),%rdx
    1ce5:	cmp    %rax,%rdx
    1ce8:	je     1d82 <handle_dots+0xe2>
/home/lookfiresu/Desktop/my_linux-3.13.0/fs/namei.c:902
	return 1;
}
    1cee:	mov    -0x8(%rax),%rcx
/home/lookfiresu/Desktop/my_linux-3.13.0/fs/namei.c:904

/*
    1cf2:	mov    %rdx,(%rbx)
/home/lookfiresu/Desktop/my_linux-3.13.0/fs/namei.c:903
	mountpoint = mnt->mnt_mountpoint;
	path->dentry = mountpoint;
	path->mnt = &parent->mnt;
	return 1;
}

    1cf5:	mov    %rcx,0x8(%rbx)
__read_seqcount_begin():
/home/lookfiresu/Desktop/my_linux-3.13.0/include/linux/seqlock.h:112
static inline unsigned __read_seqcount_begin(const seqcount_t *s)
{
	unsigned ret;

repeat:
	ret = ACCESS_ONCE(s->sequence);
    1cf9:	mov    0x4(%rcx),%eax
/home/lookfiresu/Desktop/my_linux-3.13.0/include/linux/seqlock.h:113
	if (unlikely(ret & 1)) {
    1cfc:	test   $0x1,%al
    1cfe:	jne    1f78 <handle_dots+0x2d8>
follow_dotdot_rcu():
/home/lookfiresu/Desktop/my_linux-3.13.0/fs/namei.c:1180
	}
	follow_mount_rcu(nd);
	nd->inode = nd->path.dentry->d_inode;
	return 0;

failed:
    1d04:	mov    %eax,0x3c(%rbx)
/home/lookfiresu/Desktop/my_linux-3.13.0/fs/namei.c:1162
		    nd->path.mnt == nd->root.mnt) {
			break;
		}
		if (nd->path.dentry != nd->path.mnt->mnt_root) {
			struct dentry *old = nd->path.dentry;
			struct dentry *parent = old->d_parent;
    1d07:	mov    0x8(%rbx),%rsi
    1d0b:	cmp    0x28(%rbx),%rsi
/home/lookfiresu/Desktop/my_linux-3.13.0/fs/namei.c:1163
			unsigned seq;
    1d0f:	mov    (%rbx),%rax
/home/lookfiresu/Desktop/my_linux-3.13.0/fs/namei.c:1162
		    nd->path.mnt == nd->root.mnt) {
			break;
		}
		if (nd->path.dentry != nd->path.mnt->mnt_root) {
			struct dentry *old = nd->path.dentry;
			struct dentry *parent = old->d_parent;
    1d12:	jne    1cd8 <handle_dots+0x38>
    1d14:	cmp    0x20(%rbx),%rax
    1d18:	je     1d82 <handle_dots+0xe2>
/home/lookfiresu/Desktop/my_linux-3.13.0/fs/namei.c:1166
			unsigned seq;

			seq = read_seqcount_begin(&parent->d_seq);
			if (read_seqcount_retry(&old->d_seq, nd->seq))
    1d1a:	cmp    (%rax),%rsi
    1d1d:	je     1cdd <handle_dots+0x3d>
    1d1f:	nop
/home/lookfiresu/Desktop/my_linux-3.13.0/fs/namei.c:1168
				goto failed;
			nd->path.dentry = parent;
    1d20:	mov    0x18(%rsi),%rax
__read_seqcount_begin():
/home/lookfiresu/Desktop/my_linux-3.13.0/include/linux/seqlock.h:112
static inline unsigned __read_seqcount_begin(const seqcount_t *s)
{
	unsigned ret;

repeat:
	ret = ACCESS_ONCE(s->sequence);
    1d24:	mov    0x4(%rax),%edx
/home/lookfiresu/Desktop/my_linux-3.13.0/include/linux/seqlock.h:113
	if (unlikely(ret & 1)) {
    1d27:	test   $0x1,%dl
    1d2a:	jne    1feb <handle_dots+0x34b>
follow_dotdot_rcu():
/home/lookfiresu/Desktop/my_linux-3.13.0/fs/namei.c:1172
			nd->seq = seq;
			break;
		}
		if (!follow_up_rcu(&nd->path))
    1d30:	mov    0x3c(%rbx),%ecx
    1d33:	cmp    0x4(%rsi),%ecx
    1d36:	jne    1fc9 <handle_dots+0x329>
/home/lookfiresu/Desktop/my_linux-3.13.0/fs/namei.c:1175
			break;
		nd->seq = read_seqcount_begin(&nd->path.dentry->d_seq);
	}
    1d3c:	mov    %rax,%rsi
/home/lookfiresu/Desktop/my_linux-3.13.0/fs/namei.c:1174
			nd->seq = seq;
			break;
		}
		if (!follow_up_rcu(&nd->path))
			break;
		nd->seq = read_seqcount_begin(&nd->path.dentry->d_seq);
    1d3f:	mov    %rax,0x8(%rbx)
/home/lookfiresu/Desktop/my_linux-3.13.0/fs/namei.c:1175
	}
    1d43:	mov    %edx,0x3c(%rbx)
follow_mount_rcu():
/home/lookfiresu/Desktop/my_linux-3.13.0/fs/namei.c:1146
		struct mount *mounted;
		mounted = __lookup_mnt(nd->path.mnt, nd->path.dentry);
		if (!mounted)
			break;
		nd->path.mnt = &mounted->mnt;
		nd->path.dentry = mounted->mnt.mnt_root;
    1d46:	testl  $0x10000,(%rsi)
    1d4c:	je     1d8a <handle_dots+0xea>
    1d4e:	xchg   %ax,%ax
/home/lookfiresu/Desktop/my_linux-3.13.0/fs/namei.c:1148
		nd->seq = read_seqcount_begin(&nd->path.dentry->d_seq);
	}
    1d50:	mov    (%rbx),%rdi
    1d53:	callq  1d58 <handle_dots+0xb8>
/home/lookfiresu/Desktop/my_linux-3.13.0/fs/namei.c:1149
}
    1d58:	test   %rax,%rax
    1d5b:	je     1df0 <handle_dots+0x150>
/home/lookfiresu/Desktop/my_linux-3.13.0/fs/namei.c:1151

static int follow_dotdot_rcu(struct nameidata *nd)
    1d61:	lea    0x20(%rax),%rdx
    1d65:	mov    %rdx,(%rbx)
/home/lookfiresu/Desktop/my_linux-3.13.0/fs/namei.c:1152
{
    1d68:	mov    0x20(%rax),%rdx
    1d6c:	mov    %rdx,0x8(%rbx)
__read_seqcount_begin():
/home/lookfiresu/Desktop/my_linux-3.13.0/include/linux/seqlock.h:112
static inline unsigned __read_seqcount_begin(const seqcount_t *s)
{
	unsigned ret;

repeat:
	ret = ACCESS_ONCE(s->sequence);
    1d70:	mov    0x4(%rdx),%eax
/home/lookfiresu/Desktop/my_linux-3.13.0/include/linux/seqlock.h:113
	if (unlikely(ret & 1)) {
    1d73:	test   $0x1,%al
    1d75:	jne    1f90 <handle_dots+0x2f0>
follow_mount_rcu():
/home/lookfiresu/Desktop/my_linux-3.13.0/fs/namei.c:1146
		struct mount *mounted;
		mounted = __lookup_mnt(nd->path.mnt, nd->path.dentry);
		if (!mounted)
			break;
		nd->path.mnt = &mounted->mnt;
		nd->path.dentry = mounted->mnt.mnt_root;
    1d7b:	mov    0x8(%rbx),%rsi
/home/lookfiresu/Desktop/my_linux-3.13.0/fs/namei.c:1153
	}
}

static int follow_dotdot_rcu(struct nameidata *nd)
{
	set_root_rcu(nd);
    1d7f:	mov    %eax,0x3c(%rbx)
/home/lookfiresu/Desktop/my_linux-3.13.0/fs/namei.c:1146
		struct mount *mounted;
		mounted = __lookup_mnt(nd->path.mnt, nd->path.dentry);
		if (!mounted)
			break;
		nd->path.mnt = &mounted->mnt;
		nd->path.dentry = mounted->mnt.mnt_root;
    1d82:	testl  $0x10000,(%rsi)
    1d88:	jne    1d50 <handle_dots+0xb0>
follow_dotdot_rcu():
/home/lookfiresu/Desktop/my_linux-3.13.0/fs/namei.c:1183
	return 0;

failed:
	nd->flags &= ~LOOKUP_RCU;
	if (!(nd->flags & LOOKUP_ROOT))
		nd->root.mnt = NULL;
    1d8a:	mov    0x30(%rsi),%rax
    1d8e:	mov    %rax,0x30(%rbx)
handle_dots():
/home/lookfiresu/Desktop/my_linux-3.13.0/fs/namei.c:1508
	if (!(nd->flags & LOOKUP_RCU)) {
		path_put(&nd->path);
	} else {
		nd->flags &= ~LOOKUP_RCU;
		if (!(nd->flags & LOOKUP_ROOT))
			nd->root.mnt = NULL;
    1d92:	xor    %eax,%eax
/home/lookfiresu/Desktop/my_linux-3.13.0/fs/namei.c:1509
		rcu_read_unlock();
    1d94:	pop    %rbx
    1d95:	pop    %r12
    1d97:	pop    %r13
    1d99:	pop    %rbp
    1d9a:	retq   
    1d9b:	nopl   0x0(%rax,%rax,1)
set_root():
/home/lookfiresu/Desktop/my_linux-3.13.0/fs/namei.c:651

static __always_inline void set_root(struct nameidata *nd)
{
	if (!nd->root.mnt)
		get_fs_root(current->fs, &nd->root);
}
    1da0:	cmpq   $0x0,0x20(%rdi)
    1da5:	jne    1dc1 <handle_dots+0x121>
    1da7:	jmpq   1e90 <handle_dots+0x1f0>
    1dac:	nopl   0x0(%rax)
follow_dotdot():
/home/lookfiresu/Desktop/my_linux-3.13.0/fs/namei.c:1270
			/* rare case of legitimate dget_parent()... */
			nd->path.dentry = dget_parent(nd->path.dentry);
			dput(old);
			break;
		}
		if (!follow_up(&nd->path))
    1db0:	cmp    (%rax),%r12
    1db3:	jne    1e00 <handle_dots+0x160>
/home/lookfiresu/Desktop/my_linux-3.13.0/fs/namei.c:1276
			break;
	}
	follow_mount(&nd->path);
	nd->inode = nd->path.dentry->d_inode;
}

    1db5:	mov    %rbx,%rdi
    1db8:	callq  1dbd <handle_dots+0x11d>
    1dbd:	test   %eax,%eax
    1dbf:	je     1dd8 <handle_dots+0x138>
/home/lookfiresu/Desktop/my_linux-3.13.0/fs/namei.c:1264

		if (nd->path.dentry == nd->root.dentry &&
		    nd->path.mnt == nd->root.mnt) {
			break;
		}
		if (nd->path.dentry != nd->path.mnt->mnt_root) {
    1dc1:	mov    0x8(%rbx),%r12
/home/lookfiresu/Desktop/my_linux-3.13.0/fs/namei.c:1266
			/* rare case of legitimate dget_parent()... */
			nd->path.dentry = dget_parent(nd->path.dentry);
    1dc5:	cmp    0x28(%rbx),%r12
/home/lookfiresu/Desktop/my_linux-3.13.0/fs/namei.c:1267
			dput(old);
    1dc9:	mov    (%rbx),%rax
/home/lookfiresu/Desktop/my_linux-3.13.0/fs/namei.c:1266
		    nd->path.mnt == nd->root.mnt) {
			break;
		}
		if (nd->path.dentry != nd->path.mnt->mnt_root) {
			/* rare case of legitimate dget_parent()... */
			nd->path.dentry = dget_parent(nd->path.dentry);
    1dcc:	jne    1db0 <handle_dots+0x110>
    1dce:	cmp    0x20(%rbx),%rax
    1dd2:	jne    1db0 <handle_dots+0x110>
    1dd4:	nopl   0x0(%rax)
/home/lookfiresu/Desktop/my_linux-3.13.0/fs/namei.c:1279
	nd->inode = nd->path.dentry->d_inode;
}

/*
 * This looks up the name in dcache, possibly revalidates the old dentry and
 * allocates a new one if not found or not valid.  In the need_lookup argument
    1dd8:	mov    %rbx,%rdi
    1ddb:	callq  15c0 <follow_mount>
/home/lookfiresu/Desktop/my_linux-3.13.0/fs/namei.c:1280
 * returns whether i_op->lookup is necessary.
    1de0:	mov    0x8(%rbx),%rax
    1de4:	mov    0x30(%rax),%rax
    1de8:	mov    %rax,0x30(%rbx)
handle_dots():
/home/lookfiresu/Desktop/my_linux-3.13.0/fs/namei.c:1508
	if (!(nd->flags & LOOKUP_RCU)) {
		path_put(&nd->path);
	} else {
		nd->flags &= ~LOOKUP_RCU;
		if (!(nd->flags & LOOKUP_ROOT))
			nd->root.mnt = NULL;
    1dec:	xor    %eax,%eax
    1dee:	jmp    1d94 <handle_dots+0xf4>
    1df0:	mov    0x8(%rbx),%rsi
    1df4:	jmp    1d8a <handle_dots+0xea>
    1df6:	nopw   %cs:0x0(%rax,%rax,1)
follow_dotdot():
/home/lookfiresu/Desktop/my_linux-3.13.0/fs/namei.c:1272
			dput(old);
			break;
		}
		if (!follow_up(&nd->path))
			break;
	}
    1e00:	mov    %r12,%rdi
    1e03:	callq  1e08 <handle_dots+0x168>
/home/lookfiresu/Desktop/my_linux-3.13.0/fs/namei.c:1273
	follow_mount(&nd->path);
    1e08:	mov    %r12,%rdi
/home/lookfiresu/Desktop/my_linux-3.13.0/fs/namei.c:1272
			dput(old);
			break;
		}
		if (!follow_up(&nd->path))
			break;
	}
    1e0b:	mov    %rax,0x8(%rbx)
/home/lookfiresu/Desktop/my_linux-3.13.0/fs/namei.c:1273
	follow_mount(&nd->path);
    1e0f:	callq  1e14 <handle_dots+0x174>
    1e14:	jmp    1dd8 <handle_dots+0x138>
get_current():
/home/lookfiresu/Desktop/my_linux-3.13.0/arch/x86/include/asm/current.h:19
    1e16:	mov    %gs:0x0,%rdi
set_root_rcu():
/home/lookfiresu/Desktop/my_linux-3.13.0/fs/namei.c:660
static __always_inline void set_root_rcu(struct nameidata *nd)
{
	if (!nd->root.mnt) {
		struct fs_struct *fs = current->fs;
		unsigned seq;

    1e1f:	add    $0x4a8,%rdi
    1e26:	callq  1370 <my_strcmp_base.constprop.35>
    1e2b:	test   %eax,%eax
    1e2d:	jne    1e3f <handle_dots+0x19f>
    1e2f:	cmpb   $0x0,0x0(%rip)        # 1e36 <handle_dots+0x196>
    1e36:	mov    0x0(%rip),%rax        # 1e3d <handle_dots+0x19d>
    1e3d:	jne    1e48 <handle_dots+0x1a8>
    1e3f:	mov    %gs:0x0,%rax
    1e48:	mov    0x588(%rax),%rcx
    1e4f:	jmp    1e83 <handle_dots+0x1e3>
    1e51:	nopl   0x0(%rax)
/home/lookfiresu/Desktop/my_linux-3.13.0/fs/namei.c:665
		do {
			seq = read_seqcount_begin(&fs->seq);
			nd->root = fs->root;
			nd->seq = __read_seqcount_begin(&nd->root.dentry->d_seq);
		} while (read_seqcount_retry(&fs->seq, seq));
    1e58:	mov    0x20(%rcx),%rdx
    1e5c:	mov    0x18(%rcx),%rax
    1e60:	mov    %rdx,0x28(%rbx)
/home/lookfiresu/Desktop/my_linux-3.13.0/fs/namei.c:666
	}
    1e64:	mov    0x28(%rbx),%rdx
/home/lookfiresu/Desktop/my_linux-3.13.0/fs/namei.c:665

		do {
			seq = read_seqcount_begin(&fs->seq);
			nd->root = fs->root;
			nd->seq = __read_seqcount_begin(&nd->root.dentry->d_seq);
		} while (read_seqcount_retry(&fs->seq, seq));
    1e68:	mov    %rax,0x20(%rbx)
__read_seqcount_begin():
/home/lookfiresu/Desktop/my_linux-3.13.0/include/linux/seqlock.h:112
static inline unsigned __read_seqcount_begin(const seqcount_t *s)
{
	unsigned ret;

repeat:
	ret = ACCESS_ONCE(s->sequence);
    1e6c:	mov    0x4(%rdx),%eax
/home/lookfiresu/Desktop/my_linux-3.13.0/include/linux/seqlock.h:113
	if (unlikely(ret & 1)) {
    1e6f:	test   $0x1,%al
    1e71:	jne    1ffb <handle_dots+0x35b>
set_root_rcu():
/home/lookfiresu/Desktop/my_linux-3.13.0/fs/namei.c:666
	}
    1e77:	mov    %eax,0x3c(%rbx)
/home/lookfiresu/Desktop/my_linux-3.13.0/fs/namei.c:667
}
    1e7a:	cmp    0x8(%rcx),%esi
    1e7d:	je     1d07 <handle_dots+0x67>
__read_seqcount_begin():
/home/lookfiresu/Desktop/my_linux-3.13.0/include/linux/seqlock.h:112
static inline unsigned __read_seqcount_begin(const seqcount_t *s)
{
	unsigned ret;

repeat:
	ret = ACCESS_ONCE(s->sequence);
    1e83:	mov    0x8(%rcx),%esi
/home/lookfiresu/Desktop/my_linux-3.13.0/include/linux/seqlock.h:113
	if (unlikely(ret & 1)) {
    1e86:	test   $0x1,%sil
    1e8a:	je     1e58 <handle_dots+0x1b8>
rep_nop():
/home/lookfiresu/Desktop/my_linux-3.13.0/arch/x86/include/asm/processor.h:665
    1e8c:	pause  
    1e8e:	jmp    1e83 <handle_dots+0x1e3>
get_current():
/home/lookfiresu/Desktop/my_linux-3.13.0/arch/x86/include/asm/current.h:19
    1e90:	mov    %gs:0x0,%rdi
set_root():
/home/lookfiresu/Desktop/my_linux-3.13.0/fs/namei.c:652
static __always_inline void set_root(struct nameidata *nd)
{
	if (!nd->root.mnt)
		get_fs_root(current->fs, &nd->root);
}

    1e99:	add    $0x4a8,%rdi
    1ea0:	callq  1370 <my_strcmp_base.constprop.35>
    1ea5:	test   %eax,%eax
    1ea7:	jne    1eb9 <handle_dots+0x219>
    1ea9:	cmpb   $0x0,0x0(%rip)        # 1eb0 <handle_dots+0x210>
    1eb0:	mov    0x0(%rip),%rax        # 1eb7 <handle_dots+0x217>
    1eb7:	jne    1ec2 <handle_dots+0x222>
    1eb9:	mov    %gs:0x0,%rax
    1ec2:	mov    0x588(%rax),%r13
spin_lock():
/home/lookfiresu/Desktop/my_linux-3.13.0/include/linux/spinlock.h:293
	raw_spin_lock_init(&(_lock)->rlock);		\
} while (0)

static inline void spin_lock(spinlock_t *lock)
{
	raw_spin_lock(&lock->rlock);
    1ec9:	lea    0x4(%r13),%r12
    1ecd:	mov    %r12,%rdi
    1ed0:	callq  1ed5 <handle_dots+0x235>
get_fs_root():
/home/lookfiresu/Desktop/my_linux-3.13.0/include/linux/fs_struct.h:29
extern int unshare_fs_struct(void);

static inline void get_fs_root(struct fs_struct *fs, struct path *root)
{
	spin_lock(&fs->lock);
	*root = fs->root;
    1ed5:	mov    0x18(%r13),%rax
    1ed9:	mov    0x20(%r13),%rdx
    1edd:	mov    %rax,%rdi
    1ee0:	mov    %rdx,0x28(%rbx)
    1ee4:	mov    %rax,0x20(%rbx)
path_get():
/home/lookfiresu/Desktop/my_linux-3.13.0/fs/namei.c:475
 */
void path_get(const struct path *path)
{
	mntget(path->mnt);
	dget(path->dentry);
}
    1ee8:	callq  1eed <handle_dots+0x24d>
get_current():
/home/lookfiresu/Desktop/my_linux-3.13.0/arch/x86/include/asm/current.h:19
    1eed:	mov    %gs:0x0,%rdx
path_get():
/home/lookfiresu/Desktop/my_linux-3.13.0/fs/namei.c:476
EXPORT_SYMBOL(path_get);
    1ef6:	mov    0x28(%rbx),%r13
dget():
/home/lookfiresu/Desktop/my_linux-3.13.0/include/linux/dcache.h:360
    1efa:	add    $0x4a8,%rdx
    1f01:	mov    $0x0,%rax
    1f08:	jmp    1f18 <handle_dots+0x278>
    1f0a:	nopw   0x0(%rax,%rax,1)
my_strcmp():
/home/lookfiresu/Desktop/my_linux-3.13.0/include/linux/interactive_design.h:15
			return c1 < c2 ? -1 : 1;
		if (!c1)
    1f10:	test   %cl,%cl
    1f12:	je     1fa2 <handle_dots+0x302>
/home/lookfiresu/Desktop/my_linux-3.13.0/include/linux/interactive_design.h:11

static int my_strcmp(const char *cs, const char *ct) {
	unsigned char c1, c2;

	while (1) {
		c1 = *cs++;
    1f18:	add    $0x1,%rdx
    1f1c:	movzbl -0x1(%rdx),%ecx
/home/lookfiresu/Desktop/my_linux-3.13.0/include/linux/interactive_design.h:12
		c2 = *ct++;
    1f20:	add    $0x1,%rax
/home/lookfiresu/Desktop/my_linux-3.13.0/include/linux/interactive_design.h:13
		if (c1 != c2)
    1f24:	cmp    -0x1(%rax),%cl
    1f27:	je     1f10 <handle_dots+0x270>
get_current():
/home/lookfiresu/Desktop/my_linux-3.13.0/arch/x86/include/asm/current.h:19
    1f29:	mov    %gs:0x0,%rdx
dget():
/home/lookfiresu/Desktop/my_linux-3.13.0/include/linux/dcache.h:360
    1f32:	mov    $0x0,%rax
    1f39:	add    $0x4a8,%rdx
    1f40:	jmp    1f4c <handle_dots+0x2ac>
    1f42:	nopw   0x0(%rax,%rax,1)
my_strcmp():
/home/lookfiresu/Desktop/my_linux-3.13.0/include/linux/interactive_design.h:15
			return c1 < c2 ? -1 : 1;
		if (!c1)
    1f48:	test   %cl,%cl
    1f4a:	je     1fa2 <handle_dots+0x302>
/home/lookfiresu/Desktop/my_linux-3.13.0/include/linux/interactive_design.h:11

static int my_strcmp(const char *cs, const char *ct) {
	unsigned char c1, c2;

	while (1) {
		c1 = *cs++;
    1f4c:	add    $0x1,%rdx
    1f50:	movzbl -0x1(%rdx),%ecx
/home/lookfiresu/Desktop/my_linux-3.13.0/include/linux/interactive_design.h:12
		c2 = *ct++;
    1f54:	add    $0x1,%rax
/home/lookfiresu/Desktop/my_linux-3.13.0/include/linux/interactive_design.h:13
		if (c1 != c2)
    1f58:	cmp    -0x1(%rax),%cl
    1f5b:	je     1f48 <handle_dots+0x2a8>
dget():
/home/lookfiresu/Desktop/my_linux-3.13.0/include/linux/dcache.h:361
	if (dentry)
    1f5d:	test   %r13,%r13
    1f60:	je     1f6b <handle_dots+0x2cb>
/home/lookfiresu/Desktop/my_linux-3.13.0/include/linux/dcache.h:362
		lockref_get(&dentry->d_lockref);
    1f62:	lea    0x58(%r13),%rdi
    1f66:	callq  1f6b <handle_dots+0x2cb>
spin_unlock():
/home/lookfiresu/Desktop/my_linux-3.13.0/include/linux/spinlock.h:333
	raw_spin_lock_irqsave_nested(spinlock_check(lock), flags, subclass); \
} while (0)

static inline void spin_unlock(spinlock_t *lock)
{
	raw_spin_unlock(&lock->rlock);
    1f6b:	mov    %r12,%rdi
    1f6e:	callq  1f73 <handle_dots+0x2d3>
    1f73:	jmpq   1dc1 <handle_dots+0x121>
rep_nop():
/home/lookfiresu/Desktop/my_linux-3.13.0/arch/x86/include/asm/processor.h:665
    1f78:	pause  
__read_seqcount_begin():
/home/lookfiresu/Desktop/my_linux-3.13.0/include/linux/seqlock.h:112
static inline unsigned __read_seqcount_begin(const seqcount_t *s)
{
	unsigned ret;

repeat:
	ret = ACCESS_ONCE(s->sequence);
    1f7a:	mov    0x4(%rcx),%eax
/home/lookfiresu/Desktop/my_linux-3.13.0/include/linux/seqlock.h:113
	if (unlikely(ret & 1)) {
    1f7d:	test   $0x1,%al
    1f7f:	je     1d04 <handle_dots+0x64>
    1f85:	jmp    1f78 <handle_dots+0x2d8>
    1f87:	nopw   0x0(%rax,%rax,1)
rep_nop():
/home/lookfiresu/Desktop/my_linux-3.13.0/arch/x86/include/asm/processor.h:665
    1f90:	pause  
__read_seqcount_begin():
/home/lookfiresu/Desktop/my_linux-3.13.0/include/linux/seqlock.h:112
static inline unsigned __read_seqcount_begin(const seqcount_t *s)
{
	unsigned ret;

repeat:
	ret = ACCESS_ONCE(s->sequence);
    1f92:	mov    0x4(%rdx),%eax
/home/lookfiresu/Desktop/my_linux-3.13.0/include/linux/seqlock.h:113
	if (unlikely(ret & 1)) {
    1f95:	test   $0x1,%al
    1f97:	je     1d7b <handle_dots+0xdb>
    1f9d:	nopl   (%rax)
    1fa0:	jmp    1f90 <handle_dots+0x2f0>
get_current():
/home/lookfiresu/Desktop/my_linux-3.13.0/arch/x86/include/asm/current.h:19
    1fa2:	mov    %gs:0x0,%rdx
dget():
/home/lookfiresu/Desktop/my_linux-3.13.0/include/linux/dcache.h:360
	return dentry;
}

static inline struct dentry *dget(struct dentry *dentry)
{
  MY_PRINTK(get_current()->comm);
    1fab:	mov    $0x0,%rsi
    1fb2:	add    $0x4a8,%rdx
    1fb9:	mov    $0x0,%rdi
    1fc0:	xor    %eax,%eax
    1fc2:	callq  1fc7 <handle_dots+0x327>
    1fc7:	jmp    1f5d <handle_dots+0x2bd>
follow_dotdot_rcu():
/home/lookfiresu/Desktop/my_linux-3.13.0/fs/namei.c:1187
	if (!(nd->flags & LOOKUP_ROOT))
		nd->root.mnt = NULL;
	rcu_read_unlock();
	return -ECHILD;
}

    1fc9:	mov    0x38(%rbx),%eax
    1fcc:	mov    %eax,%edx
    1fce:	and    $0xffffffbf,%edx
/home/lookfiresu/Desktop/my_linux-3.13.0/fs/namei.c:1188
/*
    1fd1:	test   $0x20,%ah
/home/lookfiresu/Desktop/my_linux-3.13.0/fs/namei.c:1187
	if (!(nd->flags & LOOKUP_ROOT))
		nd->root.mnt = NULL;
	rcu_read_unlock();
	return -ECHILD;
}

    1fd4:	mov    %edx,0x38(%rbx)
/home/lookfiresu/Desktop/my_linux-3.13.0/fs/namei.c:1188
/*
    1fd7:	jne    1fe1 <handle_dots+0x341>
/home/lookfiresu/Desktop/my_linux-3.13.0/fs/namei.c:1189
 * Follow down to the covering mount currently visible to userspace.  At each
    1fd9:	movq   $0x0,0x20(%rbx)
handle_dots():
/home/lookfiresu/Desktop/my_linux-3.13.0/fs/namei.c:1504
}

static void terminate_walk(struct nameidata *nd)
{
	if (!(nd->flags & LOOKUP_RCU)) {
		path_put(&nd->path);
    1fe1:	mov    $0xfffffff6,%eax
    1fe6:	jmpq   1d94 <handle_dots+0xf4>
rep_nop():
/home/lookfiresu/Desktop/my_linux-3.13.0/arch/x86/include/asm/processor.h:665
    1feb:	pause  
__read_seqcount_begin():
/home/lookfiresu/Desktop/my_linux-3.13.0/include/linux/seqlock.h:112
static inline unsigned __read_seqcount_begin(const seqcount_t *s)
{
	unsigned ret;

repeat:
	ret = ACCESS_ONCE(s->sequence);
    1fed:	mov    0x4(%rax),%edx
/home/lookfiresu/Desktop/my_linux-3.13.0/include/linux/seqlock.h:113
	if (unlikely(ret & 1)) {
    1ff0:	test   $0x1,%dl
    1ff3:	je     1d30 <handle_dots+0x90>
    1ff9:	jmp    1feb <handle_dots+0x34b>
rep_nop():
/home/lookfiresu/Desktop/my_linux-3.13.0/arch/x86/include/asm/processor.h:665
    1ffb:	pause  
__read_seqcount_begin():
/home/lookfiresu/Desktop/my_linux-3.13.0/include/linux/seqlock.h:112
static inline unsigned __read_seqcount_begin(const seqcount_t *s)
{
	unsigned ret;

repeat:
	ret = ACCESS_ONCE(s->sequence);
    1ffd:	mov    0x4(%rdx),%eax
/home/lookfiresu/Desktop/my_linux-3.13.0/include/linux/seqlock.h:113
	if (unlikely(ret & 1)) {
    2000:	test   $0x1,%al
    2002:	je     1e77 <handle_dots+0x1d7>
    2008:	jmp    1ffb <handle_dots+0x35b>
handle_dots():
    200a:	nopw   0x0(%rax,%rax,1)

0000000000002010 <mountpoint_last>:
mountpoint_last():
/home/lookfiresu/Desktop/my_linux-3.13.0/fs/namei.c:2214
		if (error)
			goto out;
		dentry = dget(nd->path.dentry);
		goto done;
	}

    2010:	callq  2015 <mountpoint_last+0x5>
    2015:	push   %rbp
    2016:	mov    %rsp,%rbp
    2019:	push   %r15
    201b:	push   %r14
    201d:	mov    %rsi,%r14
    2020:	push   %r13
    2022:	push   %r12
    2024:	push   %rbx
/home/lookfiresu/Desktop/my_linux-3.13.0/fs/namei.c:2220
	mutex_lock(&dir->d_inode->i_mutex);
	dentry = d_lookup(dir, &nd->last);
	if (!dentry) {
		/*
		 * No cached dentry. Mounted dentries are pinned in the cache,
		 * so that means that this dentry is probably a symlink or the
    2025:	mov    0x38(%rdi),%eax
/home/lookfiresu/Desktop/my_linux-3.13.0/fs/namei.c:2214
		if (error)
			goto out;
		dentry = dget(nd->path.dentry);
		goto done;
	}

    2028:	mov    %rdi,%rbx
/home/lookfiresu/Desktop/my_linux-3.13.0/fs/namei.c:2217
	mutex_lock(&dir->d_inode->i_mutex);
	dentry = d_lookup(dir, &nd->last);
	if (!dentry) {
    202b:	mov    0x8(%rdi),%r13
/home/lookfiresu/Desktop/my_linux-3.13.0/fs/namei.c:2220
		/*
		 * No cached dentry. Mounted dentries are pinned in the cache,
		 * so that means that this dentry is probably a symlink or the
    202f:	test   $0x40,%al
    2031:	jne    20e0 <mountpoint_last+0xd0>
/home/lookfiresu/Desktop/my_linux-3.13.0/fs/namei.c:2229
		if (!dentry) {
			error = -ENOMEM;
			mutex_unlock(&dir->d_inode->i_mutex);
			goto out;
		}
		dentry = lookup_real(dir->d_inode, dentry, nd->flags);
    2037:	mov    0x44(%rbx),%esi
/home/lookfiresu/Desktop/my_linux-3.13.0/fs/namei.c:2227
		 */
		dentry = d_alloc(dir, &nd->last);
		if (!dentry) {
			error = -ENOMEM;
			mutex_unlock(&dir->d_inode->i_mutex);
			goto out;
    203a:	and    $0xffffffef,%eax
    203d:	mov    %eax,0x38(%rbx)
/home/lookfiresu/Desktop/my_linux-3.13.0/fs/namei.c:2229
		}
		dentry = lookup_real(dir->d_inode, dentry, nd->flags);
    2040:	test   %esi,%esi
    2042:	jne    217b <mountpoint_last+0x16b>
/home/lookfiresu/Desktop/my_linux-3.13.0/fs/namei.c:2237
			mutex_unlock(&dir->d_inode->i_mutex);
			goto out;
		}
	}
	mutex_unlock(&dir->d_inode->i_mutex);

    2048:	mov    0x30(%r13),%rax
/home/lookfiresu/Desktop/my_linux-3.13.0/fs/namei.c:2238
done:
    204c:	lea    0x10(%rbx),%r15
/home/lookfiresu/Desktop/my_linux-3.13.0/fs/namei.c:2237
			mutex_unlock(&dir->d_inode->i_mutex);
			goto out;
		}
	}
	mutex_unlock(&dir->d_inode->i_mutex);

    2050:	lea    0xa8(%rax),%rdi
    2057:	callq  205c <mountpoint_last+0x4c>
/home/lookfiresu/Desktop/my_linux-3.13.0/fs/namei.c:2238
done:
    205c:	mov    %r15,%rsi
    205f:	mov    %r13,%rdi
    2062:	callq  2067 <mountpoint_last+0x57>
/home/lookfiresu/Desktop/my_linux-3.13.0/fs/namei.c:2239
	if (!dentry->d_inode) {
    2067:	test   %rax,%rax
/home/lookfiresu/Desktop/my_linux-3.13.0/fs/namei.c:2238
			goto out;
		}
	}
	mutex_unlock(&dir->d_inode->i_mutex);

done:
    206a:	mov    %rax,%r12
/home/lookfiresu/Desktop/my_linux-3.13.0/fs/namei.c:2239
	if (!dentry->d_inode) {
    206d:	je     2100 <mountpoint_last+0xf0>
/home/lookfiresu/Desktop/my_linux-3.13.0/fs/namei.c:2258
}

/**
 * path_mountpoint - look up a path to be umounted
 * @dfd:	directory file descriptor to start walk from
 * @name:	full pathname to walk
    2073:	mov    0x30(%r13),%rdi
    2077:	add    $0xa8,%rdi
    207e:	callq  2083 <mountpoint_last+0x73>
/home/lookfiresu/Desktop/my_linux-3.13.0/fs/namei.c:2261
 * @path:	pointer to container for result
 * @flags:	lookup flags
 *
    2083:	cmpq   $0x0,0x30(%r12)
    2089:	je     2148 <mountpoint_last+0x138>
/home/lookfiresu/Desktop/my_linux-3.13.0/fs/namei.c:2266
 * Look up the given name, but don't attempt to revalidate the last component.
 * Returns 0 and "path" will be valid on success; Returns error otherwise.
 */
static int path_mountpoint(int dfd, const char *name, struct path *path, unsigned int flags)
{
    208f:	mov    %r12,0x8(%r14)
/home/lookfiresu/Desktop/my_linux-3.13.0/fs/namei.c:2267
	struct file *base = NULL;
    2093:	mov    (%rbx),%rdi
    2096:	callq  209b <mountpoint_last+0x8b>
    209b:	mov    %rax,(%r14)
__d_entry_type():
/home/lookfiresu/Desktop/my_linux-3.13.0/include/linux/dcache.h:431
	spin_unlock(&dentry->d_lock);
}

static inline unsigned __d_entry_type(const struct dentry *dentry)
{
	return dentry->d_flags & DCACHE_ENTRY_TYPE;
    209e:	mov    (%r12),%eax
mountpoint_last():
/home/lookfiresu/Desktop/my_linux-3.13.0/fs/namei.c:2268
	struct nameidata nd;
    20a2:	mov    0x38(%rbx),%edx
__d_entry_type():
/home/lookfiresu/Desktop/my_linux-3.13.0/include/linux/dcache.h:431
    20a5:	and    $0x700000,%eax
should_follow_link():
/home/lookfiresu/Desktop/my_linux-3.13.0/fs/namei.c:1531
	struct inode *inode;
	int err;
	/*
	 * "." and ".." are special - ".." especially so because it has
	 * to be able to know about the current root directory and
	 * parent relationships.
    20aa:	cmp    $0x300000,%eax
    20af:	je     219f <mountpoint_last+0x18f>
mountpoint_last():
/home/lookfiresu/Desktop/my_linux-3.13.0/fs/namei.c:2270
static int path_mountpoint(int dfd, const char *name, struct path *path, unsigned int flags)
{
	struct file *base = NULL;
	struct nameidata nd;
	int err;

    20b5:	mov    %r14,%rdi
/home/lookfiresu/Desktop/my_linux-3.13.0/fs/namei.c:2271
	err = path_init(dfd, name, flags | LOOKUP_PARENT, &nd, &base);
    20b8:	xor    %r12d,%r12d
/home/lookfiresu/Desktop/my_linux-3.13.0/fs/namei.c:2270
static int path_mountpoint(int dfd, const char *name, struct path *path, unsigned int flags)
{
	struct file *base = NULL;
	struct nameidata nd;
	int err;

    20bb:	callq  15c0 <follow_mount>
/home/lookfiresu/Desktop/my_linux-3.13.0/fs/namei.c:2273
	err = path_init(dfd, name, flags | LOOKUP_PARENT, &nd, &base);
	if (unlikely(err))
		return err;
    20c0:	mov    %rbx,%rdi
    20c3:	callq  cc0 <terminate_walk>
/home/lookfiresu/Desktop/my_linux-3.13.0/fs/namei.c:2274

    20c8:	mov    %r12d,%eax
/home/lookfiresu/Desktop/my_linux-3.13.0/fs/namei.c:2275
	current->total_link_count = 0;
    20cb:	pop    %rbx
    20cc:	pop    %r12
    20ce:	pop    %r13
    20d0:	pop    %r14
    20d2:	pop    %r15
    20d4:	pop    %rbp
    20d5:	retq   
    20d6:	nopw   %cs:0x0(%rax,%rax,1)
/home/lookfiresu/Desktop/my_linux-3.13.0/fs/namei.c:2221
	dentry = d_lookup(dir, &nd->last);
	if (!dentry) {
		/*
		 * No cached dentry. Mounted dentries are pinned in the cache,
		 * so that means that this dentry is probably a symlink or the
		 * path doesn't actually point to a mounted dentry.
    20e0:	xor    %esi,%esi
    20e2:	callq  17c0 <unlazy_walk>
    20e7:	test   %eax,%eax
    20e9:	je     20f8 <mountpoint_last+0xe8>
/home/lookfiresu/Desktop/my_linux-3.13.0/fs/namei.c:2222
		 */
    20eb:	mov    $0xfffffff6,%r12d
    20f1:	jmp    20c0 <mountpoint_last+0xb0>
    20f3:	nopl   0x0(%rax,%rax,1)
    20f8:	mov    0x38(%rbx),%eax
    20fb:	jmpq   2037 <mountpoint_last+0x27>
/home/lookfiresu/Desktop/my_linux-3.13.0/fs/namei.c:2245
		error = -ENOENT;
		dput(dentry);
		goto out;
	}
	path->dentry = dentry;
	path->mnt = mntget(nd->path.mnt);
    2100:	mov    %r15,%rsi
    2103:	mov    %r13,%rdi
    2106:	callq  210b <mountpoint_last+0xfb>
/home/lookfiresu/Desktop/my_linux-3.13.0/fs/namei.c:2246
	if (should_follow_link(dentry, nd->flags & LOOKUP_FOLLOW))
    210b:	test   %rax,%rax
    210e:	je     2160 <mountpoint_last+0x150>
/home/lookfiresu/Desktop/my_linux-3.13.0/fs/namei.c:2251
		return 1;
	follow_mount(path);
	error = 0;
out:
	terminate_walk(nd);
    2110:	mov    0x38(%rbx),%edx
    2113:	mov    0x30(%r13),%rdi
    2117:	mov    %rax,%rsi
    211a:	callq  f0 <lookup_real>
/home/lookfiresu/Desktop/my_linux-3.13.0/fs/namei.c:2253
	return error;
}
    211f:	cmp    $0xfffffffffffff000,%rax
/home/lookfiresu/Desktop/my_linux-3.13.0/fs/namei.c:2251
	if (should_follow_link(dentry, nd->flags & LOOKUP_FOLLOW))
		return 1;
	follow_mount(path);
	error = 0;
out:
	terminate_walk(nd);
    2125:	mov    %rax,%r12
/home/lookfiresu/Desktop/my_linux-3.13.0/fs/namei.c:2253
	return error;
}
    2128:	jbe    2073 <mountpoint_last+0x63>
/home/lookfiresu/Desktop/my_linux-3.13.0/fs/namei.c:2254

    212e:	mov    0x30(%r13),%rdi
    2132:	add    $0xa8,%rdi
    2139:	callq  213e <mountpoint_last+0x12e>
/home/lookfiresu/Desktop/my_linux-3.13.0/fs/namei.c:2255
/**
    213e:	jmpq   20c0 <mountpoint_last+0xb0>
    2143:	nopl   0x0(%rax,%rax,1)
/home/lookfiresu/Desktop/my_linux-3.13.0/fs/namei.c:2263
 * @name:	full pathname to walk
 * @path:	pointer to container for result
 * @flags:	lookup flags
 *
 * Look up the given name, but don't attempt to revalidate the last component.
 * Returns 0 and "path" will be valid on success; Returns error otherwise.
    2148:	mov    %r12,%rdi
/home/lookfiresu/Desktop/my_linux-3.13.0/fs/namei.c:2262
 * @dfd:	directory file descriptor to start walk from
 * @name:	full pathname to walk
 * @path:	pointer to container for result
 * @flags:	lookup flags
 *
 * Look up the given name, but don't attempt to revalidate the last component.
    214b:	mov    $0xfffffffe,%r12d
/home/lookfiresu/Desktop/my_linux-3.13.0/fs/namei.c:2263
 * Returns 0 and "path" will be valid on success; Returns error otherwise.
    2151:	callq  2156 <mountpoint_last+0x146>
/home/lookfiresu/Desktop/my_linux-3.13.0/fs/namei.c:2264
 */
    2156:	jmpq   20c0 <mountpoint_last+0xb0>
    215b:	nopl   0x0(%rax,%rax,1)
/home/lookfiresu/Desktop/my_linux-3.13.0/fs/namei.c:2248
	}
	path->dentry = dentry;
	path->mnt = mntget(nd->path.mnt);
	if (should_follow_link(dentry, nd->flags & LOOKUP_FOLLOW))
		return 1;
	follow_mount(path);
    2160:	mov    0x30(%r13),%rdi
/home/lookfiresu/Desktop/my_linux-3.13.0/fs/namei.c:2247
		goto out;
	}
	path->dentry = dentry;
	path->mnt = mntget(nd->path.mnt);
	if (should_follow_link(dentry, nd->flags & LOOKUP_FOLLOW))
		return 1;
    2164:	mov    $0xfffffff4,%r12d
/home/lookfiresu/Desktop/my_linux-3.13.0/fs/namei.c:2248
	follow_mount(path);
    216a:	add    $0xa8,%rdi
    2171:	callq  2176 <mountpoint_last+0x166>
/home/lookfiresu/Desktop/my_linux-3.13.0/fs/namei.c:2249
	error = 0;
    2176:	jmpq   20c0 <mountpoint_last+0xb0>
/home/lookfiresu/Desktop/my_linux-3.13.0/fs/namei.c:2230
			error = -ENOMEM;
			mutex_unlock(&dir->d_inode->i_mutex);
			goto out;
		}
		dentry = lookup_real(dir->d_inode, dentry, nd->flags);
		error = PTR_ERR(dentry);
    217b:	mov    %rbx,%rdi
    217e:	callq  1ca0 <handle_dots>
/home/lookfiresu/Desktop/my_linux-3.13.0/fs/namei.c:2231
		if (IS_ERR(dentry)) {
    2183:	test   %eax,%eax
/home/lookfiresu/Desktop/my_linux-3.13.0/fs/namei.c:2230
			error = -ENOMEM;
			mutex_unlock(&dir->d_inode->i_mutex);
			goto out;
		}
		dentry = lookup_real(dir->d_inode, dentry, nd->flags);
		error = PTR_ERR(dentry);
    2185:	mov    %eax,%r12d
/home/lookfiresu/Desktop/my_linux-3.13.0/fs/namei.c:2231
		if (IS_ERR(dentry)) {
    2188:	jne    20c0 <mountpoint_last+0xb0>
/home/lookfiresu/Desktop/my_linux-3.13.0/fs/namei.c:2233
			mutex_unlock(&dir->d_inode->i_mutex);
			goto out;
    218e:	mov    0x8(%rbx),%rdi
    2192:	callq  30 <dget>
    2197:	mov    %rax,%r12
/home/lookfiresu/Desktop/my_linux-3.13.0/fs/namei.c:2234
		}
    219a:	jmpq   2083 <mountpoint_last+0x73>
/home/lookfiresu/Desktop/my_linux-3.13.0/fs/namei.c:2268
 * Returns 0 and "path" will be valid on success; Returns error otherwise.
 */
static int path_mountpoint(int dfd, const char *name, struct path *path, unsigned int flags)
{
	struct file *base = NULL;
	struct nameidata nd;
    219f:	and    $0x1,%dl
/home/lookfiresu/Desktop/my_linux-3.13.0/fs/namei.c:2269
	int err;
    21a2:	mov    $0x1,%eax
/home/lookfiresu/Desktop/my_linux-3.13.0/fs/namei.c:2268
 * Returns 0 and "path" will be valid on success; Returns error otherwise.
 */
static int path_mountpoint(int dfd, const char *name, struct path *path, unsigned int flags)
{
	struct file *base = NULL;
	struct nameidata nd;
    21a7:	jne    20cb <mountpoint_last+0xbb>
    21ad:	jmpq   20b5 <mountpoint_last+0xa5>
    21b2:	data32 data32 data32 data32 nopw %cs:0x0(%rax,%rax,1)

00000000000021c0 <final_putname>:
final_putname():
/home/lookfiresu/Desktop/my_linux-3.13.0/fs/namei.c:123
 *
 * POSIX.1 2.4: an empty pathname is invalid (ENOENT).
 * PATH_MAX includes the nul terminator --RR.
 */
void final_putname(struct filename *name)
{
    21c0:	callq  21c5 <final_putname+0x5>
    21c5:	push   %rbp
/home/lookfiresu/Desktop/my_linux-3.13.0/fs/namei.c:126
	if (name->separate) {
		// __putname(name->name);
    if (my_strcmp(get_current()->comm, "fs_kthread") != 0)
    21c6:	mov    $0x0,%rax
get_current():
/home/lookfiresu/Desktop/my_linux-3.13.0/arch/x86/include/asm/current.h:19
    21cd:	mov    %gs:0x0,%rdx
final_putname():
/home/lookfiresu/Desktop/my_linux-3.13.0/fs/namei.c:123
 *
 * POSIX.1 2.4: an empty pathname is invalid (ENOENT).
 * PATH_MAX includes the nul terminator --RR.
 */
void final_putname(struct filename *name)
{
    21d6:	mov    %rsp,%rbp
/home/lookfiresu/Desktop/my_linux-3.13.0/fs/namei.c:126
	if (name->separate) {
		// __putname(name->name);
    if (my_strcmp(get_current()->comm, "fs_kthread") != 0)
    21d9:	add    $0x4a8,%rdx
/home/lookfiresu/Desktop/my_linux-3.13.0/fs/namei.c:123
 *
 * POSIX.1 2.4: an empty pathname is invalid (ENOENT).
 * PATH_MAX includes the nul terminator --RR.
 */
void final_putname(struct filename *name)
{
    21e0:	push   %rbx
/home/lookfiresu/Desktop/my_linux-3.13.0/fs/namei.c:124
	if (name->separate) {
    21e1:	cmpb   $0x0,0x18(%rdi)
/home/lookfiresu/Desktop/my_linux-3.13.0/fs/namei.c:123
 *
 * POSIX.1 2.4: an empty pathname is invalid (ENOENT).
 * PATH_MAX includes the nul terminator --RR.
 */
void final_putname(struct filename *name)
{
    21e5:	mov    %rdi,%rbx
/home/lookfiresu/Desktop/my_linux-3.13.0/fs/namei.c:124
	if (name->separate) {
    21e8:	je     2224 <final_putname+0x64>
    21ea:	jmp    21f4 <final_putname+0x34>
    21ec:	nopl   0x0(%rax)
my_strcmp():
/home/lookfiresu/Desktop/my_linux-3.13.0/include/linux/interactive_design.h:15
			return c1 < c2 ? -1 : 1;
		if (!c1)
    21f0:	test   %cl,%cl
    21f2:	je     2250 <final_putname+0x90>
/home/lookfiresu/Desktop/my_linux-3.13.0/include/linux/interactive_design.h:11

static int my_strcmp(const char *cs, const char *ct) {
	unsigned char c1, c2;

	while (1) {
		c1 = *cs++;
    21f4:	add    $0x1,%rdx
    21f8:	movzbl -0x1(%rdx),%ecx
/home/lookfiresu/Desktop/my_linux-3.13.0/include/linux/interactive_design.h:12
		c2 = *ct++;
    21fc:	add    $0x1,%rax
/home/lookfiresu/Desktop/my_linux-3.13.0/include/linux/interactive_design.h:13
		if (c1 != c2)
    2200:	cmp    -0x1(%rax),%cl
    2203:	je     21f0 <final_putname+0x30>
final_putname():
/home/lookfiresu/Desktop/my_linux-3.13.0/fs/namei.c:127
		// __putname(name->name);
    if (my_strcmp(get_current()->comm, "fs_kthread") != 0)
      __putname(name->name);
    2205:	mov    (%rbx),%rsi
    2208:	mov    0x0(%rip),%rdi        # 220f <final_putname+0x4f>
    220f:	callq  2214 <final_putname+0x54>
/home/lookfiresu/Desktop/my_linux-3.13.0/fs/namei.c:130
    else
      msg_kmem_cache_free(names_cachep, (void *)(name->name), msqid_from_fs_to_kernel, msqid_from_kernel_to_fs);
		kfree(name);
    2214:	mov    %rbx,%rdi
    2217:	callq  221c <final_putname+0x5c>
/home/lookfiresu/Desktop/my_linux-3.13.0/fs/namei.c:139
    if (my_strcmp(get_current()->comm, "fs_kthread") != 0)
      __putname(name);
    else
      msg_kmem_cache_free(names_cachep, (void *)(name), msqid_from_fs_to_kernel, msqid_from_kernel_to_fs);
	}
}
    221c:	pop    %rbx
    221d:	pop    %rbp
    221e:	retq   
    221f:	nop
my_strcmp():
/home/lookfiresu/Desktop/my_linux-3.13.0/include/linux/interactive_design.h:15
			return c1 < c2 ? -1 : 1;
		if (!c1)
    2220:	test   %cl,%cl
    2222:	je     2270 <final_putname+0xb0>
/home/lookfiresu/Desktop/my_linux-3.13.0/include/linux/interactive_design.h:11

static int my_strcmp(const char *cs, const char *ct) {
	unsigned char c1, c2;

	while (1) {
		c1 = *cs++;
    2224:	add    $0x1,%rdx
    2228:	movzbl -0x1(%rdx),%ecx
/home/lookfiresu/Desktop/my_linux-3.13.0/include/linux/interactive_design.h:12
		c2 = *ct++;
    222c:	add    $0x1,%rax
/home/lookfiresu/Desktop/my_linux-3.13.0/include/linux/interactive_design.h:13
		if (c1 != c2)
    2230:	cmp    -0x1(%rax),%cl
    2233:	je     2220 <final_putname+0x60>
final_putname():
/home/lookfiresu/Desktop/my_linux-3.13.0/fs/namei.c:135
		kfree(name);
    // msg_kfree(name);
	} else {
		// __putname(name);
    if (my_strcmp(get_current()->comm, "fs_kthread") != 0)
      __putname(name);
    2235:	mov    0x0(%rip),%rdi        # 223c <final_putname+0x7c>
    223c:	mov    %rbx,%rsi
    223f:	callq  2244 <final_putname+0x84>
/home/lookfiresu/Desktop/my_linux-3.13.0/fs/namei.c:139
    else
      msg_kmem_cache_free(names_cachep, (void *)(name), msqid_from_fs_to_kernel, msqid_from_kernel_to_fs);
	}
}
    2244:	pop    %rbx
    2245:	pop    %rbp
    2246:	retq   
    2247:	nopw   0x0(%rax,%rax,1)
/home/lookfiresu/Desktop/my_linux-3.13.0/fs/namei.c:129
	if (name->separate) {
		// __putname(name->name);
    if (my_strcmp(get_current()->comm, "fs_kthread") != 0)
      __putname(name->name);
    else
      msg_kmem_cache_free(names_cachep, (void *)(name->name), msqid_from_fs_to_kernel, msqid_from_kernel_to_fs);
    2250:	mov    0x0(%rip),%ecx        # 2256 <final_putname+0x96>
    2256:	mov    0x0(%rip),%edx        # 225c <final_putname+0x9c>
    225c:	mov    (%rbx),%rsi
    225f:	mov    0x0(%rip),%rdi        # 2266 <final_putname+0xa6>
    2266:	callq  226b <final_putname+0xab>
    226b:	jmp    2214 <final_putname+0x54>
    226d:	nopl   (%rax)
/home/lookfiresu/Desktop/my_linux-3.13.0/fs/namei.c:137
	} else {
		// __putname(name);
    if (my_strcmp(get_current()->comm, "fs_kthread") != 0)
      __putname(name);
    else
      msg_kmem_cache_free(names_cachep, (void *)(name), msqid_from_fs_to_kernel, msqid_from_kernel_to_fs);
    2270:	mov    0x0(%rip),%ecx        # 2276 <final_putname+0xb6>
    2276:	mov    0x0(%rip),%edx        # 227c <final_putname+0xbc>
    227c:	mov    %rbx,%rsi
    227f:	mov    0x0(%rip),%rdi        # 2286 <final_putname+0xc6>
    2286:	callq  228b <final_putname+0xcb>
/home/lookfiresu/Desktop/my_linux-3.13.0/fs/namei.c:139
	}
}
    228b:	pop    %rbx
    228c:	pop    %rbp
    228d:	retq   
    228e:	xchg   %ax,%ax

0000000000002290 <getname_flags>:
getname_flags():
/home/lookfiresu/Desktop/my_linux-3.13.0/fs/namei.c:145

#define EMBEDDED_NAME_MAX	(PATH_MAX - sizeof(struct filename))

static struct filename *getname_flags(const char __user *filename, int flags, int *empty)
{
	struct filename *result, *err;
    2290:	callq  2295 <getname_flags+0x5>
    2295:	push   %rbp
    2296:	mov    %rsp,%rbp
    2299:	push   %r15
    229b:	push   %r14
    229d:	mov    %esi,%r14d
/home/lookfiresu/Desktop/my_linux-3.13.0/fs/namei.c:152
	long max;
	char *kname;

	// result = audit_reusename(filename);
	result = msg_audit_reusename(filename, msqid_from_fs_to_kernel, msqid_from_kernel_to_fs);
	if (result)
    22a0:	mov    0x0(%rip),%esi        # 22a6 <getname_flags+0x16>
/home/lookfiresu/Desktop/my_linux-3.13.0/fs/namei.c:145

#define EMBEDDED_NAME_MAX	(PATH_MAX - sizeof(struct filename))

static struct filename *getname_flags(const char __user *filename, int flags, int *empty)
{
	struct filename *result, *err;
    22a6:	push   %r13
    22a8:	mov    %rdx,%r13
/home/lookfiresu/Desktop/my_linux-3.13.0/fs/namei.c:152
	long max;
	char *kname;

	// result = audit_reusename(filename);
	result = msg_audit_reusename(filename, msqid_from_fs_to_kernel, msqid_from_kernel_to_fs);
	if (result)
    22ab:	mov    0x0(%rip),%edx        # 22b1 <getname_flags+0x21>
/home/lookfiresu/Desktop/my_linux-3.13.0/fs/namei.c:145

#define EMBEDDED_NAME_MAX	(PATH_MAX - sizeof(struct filename))

static struct filename *getname_flags(const char __user *filename, int flags, int *empty)
{
	struct filename *result, *err;
    22b1:	push   %r12
    22b3:	mov    %rdi,%r12
    22b6:	push   %rbx
/home/lookfiresu/Desktop/my_linux-3.13.0/fs/namei.c:152
	long max;
	char *kname;

	// result = audit_reusename(filename);
	result = msg_audit_reusename(filename, msqid_from_fs_to_kernel, msqid_from_kernel_to_fs);
	if (result)
    22b7:	callq  22bc <getname_flags+0x2c>
/home/lookfiresu/Desktop/my_linux-3.13.0/fs/namei.c:153
		return result;
    22bc:	test   %rax,%rax
    22bf:	je     22d0 <getname_flags+0x40>
/home/lookfiresu/Desktop/my_linux-3.13.0/fs/namei.c:218

error:
	final_putname(result);
	return err;
}

    22c1:	pop    %rbx
    22c2:	pop    %r12
    22c4:	pop    %r13
    22c6:	pop    %r14
    22c8:	pop    %r15
    22ca:	pop    %rbp
    22cb:	retq   
    22cc:	nopl   0x0(%rax)
/home/lookfiresu/Desktop/my_linux-3.13.0/fs/namei.c:156
	result = msg_audit_reusename(filename, msqid_from_fs_to_kernel, msqid_from_kernel_to_fs);
	if (result)
		return result;

	result = __getname();
	if (unlikely(!result))
    22d0:	mov    0x0(%rip),%rdi        # 22d7 <getname_flags+0x47>
    22d7:	mov    $0xd0,%esi
    22dc:	callq  22e1 <getname_flags+0x51>
/home/lookfiresu/Desktop/my_linux-3.13.0/fs/namei.c:157
		return ERR_PTR(-ENOMEM);
    22e1:	test   %rax,%rax
/home/lookfiresu/Desktop/my_linux-3.13.0/fs/namei.c:156
	result = msg_audit_reusename(filename, msqid_from_fs_to_kernel, msqid_from_kernel_to_fs);
	if (result)
		return result;

	result = __getname();
	if (unlikely(!result))
    22e4:	mov    %rax,%rbx
/home/lookfiresu/Desktop/my_linux-3.13.0/fs/namei.c:157
		return ERR_PTR(-ENOMEM);
    22e7:	je     239c <getname_flags+0x10c>
/home/lookfiresu/Desktop/my_linux-3.13.0/fs/namei.c:164
	/*
	 * First, try to embed the struct filename inside the names_cache
	 * allocation
	 */
	kname = (char *)result + sizeof(*result);
	result->name = kname;
    22ed:	lea    0x20(%rax),%rdi
/home/lookfiresu/Desktop/my_linux-3.13.0/fs/namei.c:166
	result->separate = false;
	max = EMBEDDED_NAME_MAX;
    22f1:	movb   $0x0,0x18(%rax)
/home/lookfiresu/Desktop/my_linux-3.13.0/fs/namei.c:167

    22f5:	mov    $0xfe0,%r15d
/home/lookfiresu/Desktop/my_linux-3.13.0/fs/namei.c:165
	 * First, try to embed the struct filename inside the names_cache
	 * allocation
	 */
	kname = (char *)result + sizeof(*result);
	result->name = kname;
	result->separate = false;
    22fb:	mov    %rdi,(%rax)
    22fe:	jmp    2336 <getname_flags+0xa6>
/home/lookfiresu/Desktop/my_linux-3.13.0/fs/namei.c:182
	 * separate struct filename so we can dedicate the entire
	 * names_cache allocation for the pathname, and re-do the copy from
	 * userland.
	 */
	if (len == EMBEDDED_NAME_MAX && max == EMBEDDED_NAME_MAX) {
		kname = (char *)result;
    2300:	cmp    $0xfe0,%r15
    2307:	jne    234e <getname_flags+0xbe>
kmalloc():
/home/lookfiresu/Desktop/my_linux-3.13.0/include/linux/slab.h:454
			int index = kmalloc_index(size);

			if (!index)
				return ZERO_SIZE_PTR;

			return kmem_cache_alloc_trace(kmalloc_caches[index],
    2309:	mov    0x0(%rip),%rdi        # 2310 <getname_flags+0x80>
    2310:	mov    $0x20,%edx
    2315:	mov    $0x80d0,%esi
    231a:	callq  231f <getname_flags+0x8f>
getname_flags():
/home/lookfiresu/Desktop/my_linux-3.13.0/fs/namei.c:186

		result = kzalloc(sizeof(*result), GFP_KERNEL);
		if (!result) {
			err = ERR_PTR(-ENOMEM);
    231f:	test   %rax,%rax
    2322:	je     2380 <getname_flags+0xf0>
/home/lookfiresu/Desktop/my_linux-3.13.0/fs/namei.c:191
			result = (struct filename *)kname;
			goto error;
		}
		result->name = kname;
		result->separate = true;
    2324:	mov    %rbx,(%rax)
    2327:	mov    %rbx,%rdi
/home/lookfiresu/Desktop/my_linux-3.13.0/fs/namei.c:192
		max = PATH_MAX;
    232a:	movb   $0x1,0x18(%rax)
/home/lookfiresu/Desktop/my_linux-3.13.0/fs/namei.c:193
		goto recopy;
    232e:	mov    $0x1000,%r15w
    2333:	mov    %rax,%rbx
/home/lookfiresu/Desktop/my_linux-3.13.0/fs/namei.c:170
	result->separate = false;
	max = EMBEDDED_NAME_MAX;

recopy:
	len = strncpy_from_user(kname, filename, max);
	if (unlikely(len < 0)) {
    2336:	mov    %r15,%rdx
    2339:	mov    %r12,%rsi
    233c:	callq  2341 <getname_flags+0xb1>
/home/lookfiresu/Desktop/my_linux-3.13.0/fs/namei.c:171
		err = ERR_PTR(len);
    2341:	test   %eax,%eax
/home/lookfiresu/Desktop/my_linux-3.13.0/fs/namei.c:170
	result->separate = false;
	max = EMBEDDED_NAME_MAX;

recopy:
	len = strncpy_from_user(kname, filename, max);
	if (unlikely(len < 0)) {
    2343:	mov    %eax,%edx
/home/lookfiresu/Desktop/my_linux-3.13.0/fs/namei.c:171
		err = ERR_PTR(len);
    2345:	js     2397 <getname_flags+0x107>
/home/lookfiresu/Desktop/my_linux-3.13.0/fs/namei.c:182
	 * separate struct filename so we can dedicate the entire
	 * names_cache allocation for the pathname, and re-do the copy from
	 * userland.
	 */
	if (len == EMBEDDED_NAME_MAX && max == EMBEDDED_NAME_MAX) {
		kname = (char *)result;
    2347:	cmp    $0xfe0,%eax
    234c:	je     2300 <getname_flags+0x70>
/home/lookfiresu/Desktop/my_linux-3.13.0/fs/namei.c:198
		goto recopy;
	}

	/* The empty path is special. */
	if (unlikely(!len)) {
		if (empty)
    234e:	test   %edx,%edx
    2350:	je     23b1 <getname_flags+0x121>
/home/lookfiresu/Desktop/my_linux-3.13.0/fs/namei.c:207
			goto error;
	}

	err = ERR_PTR(-ENAMETOOLONG);
	if (unlikely(len >= PATH_MAX))
		goto error;
    2352:	cmp    $0xfff,%edx
    2358:	jg     23a8 <getname_flags+0x118>
/home/lookfiresu/Desktop/my_linux-3.13.0/fs/namei.c:212

	result->uptr = filename;
	// audit_getname(result);
	msg_audit_getname(result, msqid_from_fs_to_kernel, msqid_from_kernel_to_fs);
	return result;
    235a:	mov    0x0(%rip),%edx        # 2360 <getname_flags+0xd0>
    2360:	mov    0x0(%rip),%esi        # 2366 <getname_flags+0xd6>
    2366:	mov    %rbx,%rdi
/home/lookfiresu/Desktop/my_linux-3.13.0/fs/namei.c:210
	err = ERR_PTR(-ENAMETOOLONG);
	if (unlikely(len >= PATH_MAX))
		goto error;

	result->uptr = filename;
	// audit_getname(result);
    2369:	mov    %r12,0x8(%rbx)
/home/lookfiresu/Desktop/my_linux-3.13.0/fs/namei.c:212
	msg_audit_getname(result, msqid_from_fs_to_kernel, msqid_from_kernel_to_fs);
	return result;
    236d:	callq  2372 <getname_flags+0xe2>
    2372:	mov    %rbx,%rax
    2375:	jmpq   22c1 <getname_flags+0x31>
    237a:	nopw   0x0(%rax,%rax,1)
/home/lookfiresu/Desktop/my_linux-3.13.0/fs/namei.c:187
		kname = (char *)result;

		result = kzalloc(sizeof(*result), GFP_KERNEL);
		if (!result) {
			err = ERR_PTR(-ENOMEM);
			result = (struct filename *)kname;
    2380:	mov    $0xfffffffffffffff4,%r12
/home/lookfiresu/Desktop/my_linux-3.13.0/fs/namei.c:216
	msg_audit_getname(result, msqid_from_fs_to_kernel, msqid_from_kernel_to_fs);
	return result;

error:
	final_putname(result);
	return err;
    2387:	mov    %rbx,%rdi
    238a:	callq  238f <getname_flags+0xff>
/home/lookfiresu/Desktop/my_linux-3.13.0/fs/namei.c:217
}
    238f:	mov    %r12,%rax
    2392:	jmpq   22c1 <getname_flags+0x31>
/home/lookfiresu/Desktop/my_linux-3.13.0/fs/namei.c:172

recopy:
	len = strncpy_from_user(kname, filename, max);
	if (unlikely(len < 0)) {
		err = ERR_PTR(len);
		goto error;
    2397:	movslq %eax,%r12
    239a:	jmp    2387 <getname_flags+0xf7>
/home/lookfiresu/Desktop/my_linux-3.13.0/fs/namei.c:158
		return result;

	result = __getname();
	if (unlikely(!result))
		return ERR_PTR(-ENOMEM);

    239c:	mov    $0xfffffffffffffff4,%rax
    23a3:	jmpq   22c1 <getname_flags+0x31>
/home/lookfiresu/Desktop/my_linux-3.13.0/fs/namei.c:206
		if (!(flags & LOOKUP_EMPTY))
			goto error;
	}

	err = ERR_PTR(-ENAMETOOLONG);
	if (unlikely(len >= PATH_MAX))
    23a8:	mov    $0xffffffffffffffdc,%r12
    23af:	jmp    2387 <getname_flags+0xf7>
/home/lookfiresu/Desktop/my_linux-3.13.0/fs/namei.c:199
	}

	/* The empty path is special. */
	if (unlikely(!len)) {
		if (empty)
			*empty = 1;
    23b1:	test   %r13,%r13
    23b4:	je     23be <getname_flags+0x12e>
/home/lookfiresu/Desktop/my_linux-3.13.0/fs/namei.c:200
		err = ERR_PTR(-ENOENT);
    23b6:	movl   $0x1,0x0(%r13)
/home/lookfiresu/Desktop/my_linux-3.13.0/fs/namei.c:202
		if (!(flags & LOOKUP_EMPTY))
			goto error;
    23be:	and    $0x4000,%r14d
    23c5:	jne    235a <getname_flags+0xca>
/home/lookfiresu/Desktop/my_linux-3.13.0/fs/namei.c:201
	/* The empty path is special. */
	if (unlikely(!len)) {
		if (empty)
			*empty = 1;
		err = ERR_PTR(-ENOENT);
		if (!(flags & LOOKUP_EMPTY))
    23c7:	mov    $0xfffffffffffffffe,%r12
    23ce:	jmp    2387 <getname_flags+0xf7>

00000000000023d0 <getname>:
getname():
/home/lookfiresu/Desktop/my_linux-3.13.0/fs/namei.c:222
}

struct filename *getname(const char __user * filename)
{
	return getname_flags(filename, 0, NULL);
}
    23d0:	callq  23d5 <getname+0x5>
    23d5:	push   %rbp
/home/lookfiresu/Desktop/my_linux-3.13.0/fs/namei.c:223
EXPORT_SYMBOL(getname);
    23d6:	xor    %edx,%edx
    23d8:	xor    %esi,%esi
/home/lookfiresu/Desktop/my_linux-3.13.0/fs/namei.c:222
}

struct filename *getname(const char __user * filename)
{
	return getname_flags(filename, 0, NULL);
}
    23da:	mov    %rsp,%rbp
/home/lookfiresu/Desktop/my_linux-3.13.0/fs/namei.c:223
EXPORT_SYMBOL(getname);
    23dd:	callq  2290 <getname_flags>
/home/lookfiresu/Desktop/my_linux-3.13.0/fs/namei.c:224

    23e2:	pop    %rbp
    23e3:	retq   
    23e4:	data32 data32 nopw %cs:0x0(%rax,%rax,1)

00000000000023f0 <putname>:
putname():
/home/lookfiresu/Desktop/my_linux-3.13.0/fs/namei.c:229
#ifdef CONFIG_AUDITSYSCALL
void putname(struct filename *name)
{
	if (unlikely(!audit_dummy_context()))
		return audit_putname(name);
    23f0:	callq  23f5 <putname+0x5>
    23f5:	push   %rbp
audit_dummy_context():
/home/lookfiresu/Desktop/my_linux-3.13.0/include/linux/audit.h:122
extern void __audit_seccomp(unsigned long syscall, long signr, int code);
extern void __audit_ptrace(struct task_struct *t);

static inline int audit_dummy_context(void)
{
	void *p = current->audit_context;
    23f6:	mov    $0x0,%rax
get_current():
/home/lookfiresu/Desktop/my_linux-3.13.0/arch/x86/include/asm/current.h:19
    23fd:	mov    %gs:0x0,%rdx
putname():
/home/lookfiresu/Desktop/my_linux-3.13.0/fs/namei.c:229
    2406:	mov    %rsp,%rbp
audit_dummy_context():
/home/lookfiresu/Desktop/my_linux-3.13.0/include/linux/audit.h:122
    2409:	add    $0x4a8,%rdx
    2410:	jmp    241c <putname+0x2c>
    2412:	nopw   0x0(%rax,%rax,1)
my_strcmp_base():
/home/lookfiresu/Desktop/my_linux-3.13.0/arch/x86/include/asm/current.h:30
	while (1) {
		c1 = *cs++;
		c2 = *ct++;
		if (c1 != c2)
			return c1 < c2 ? -1 : 1;
		if (!c1)
    2418:	test   %cl,%cl
    241a:	je     2458 <putname+0x68>
/home/lookfiresu/Desktop/my_linux-3.13.0/arch/x86/include/asm/current.h:26

static int my_strcmp_base(const char *cs, const char *ct) {
	unsigned char c1, c2;

	while (1) {
		c1 = *cs++;
    241c:	add    $0x1,%rdx
    2420:	movzbl -0x1(%rdx),%ecx
/home/lookfiresu/Desktop/my_linux-3.13.0/arch/x86/include/asm/current.h:27
		c2 = *ct++;
    2424:	add    $0x1,%rax
/home/lookfiresu/Desktop/my_linux-3.13.0/arch/x86/include/asm/current.h:28
		if (c1 != c2)
    2428:	cmp    -0x1(%rax),%cl
    242b:	je     2418 <putname+0x28>
audit_dummy_context():
/home/lookfiresu/Desktop/my_linux-3.13.0/include/linux/audit.h:122
    242d:	mov    %gs:0x0,%rax
    2436:	mov    0x610(%rax),%rax
/home/lookfiresu/Desktop/my_linux-3.13.0/include/linux/audit.h:123
	return !p || *(int *)p;
    243d:	test   %rax,%rax
    2440:	je     2478 <putname+0x88>
    2442:	mov    (%rax),%eax
    2444:	test   %eax,%eax
    2446:	jne    2478 <putname+0x88>
putname():
/home/lookfiresu/Desktop/my_linux-3.13.0/fs/namei.c:231
	final_putname(name);
}
    2448:	callq  244d <putname+0x5d>
/home/lookfiresu/Desktop/my_linux-3.13.0/fs/namei.c:233
#endif

    244d:	pop    %rbp
    244e:	xchg   %ax,%ax
    2450:	retq   
    2451:	nopl   0x0(%rax)
audit_dummy_context():
/home/lookfiresu/Desktop/my_linux-3.13.0/include/linux/audit.h:122
extern void __audit_seccomp(unsigned long syscall, long signr, int code);
extern void __audit_ptrace(struct task_struct *t);

static inline int audit_dummy_context(void)
{
	void *p = current->audit_context;
    2458:	cmpb   $0x0,0x0(%rip)        # 245f <putname+0x6f>
    245f:	mov    0x0(%rip),%rax        # 2466 <putname+0x76>
    2466:	je     242d <putname+0x3d>
    2468:	mov    0x610(%rax),%rax
/home/lookfiresu/Desktop/my_linux-3.13.0/include/linux/audit.h:123
	return !p || *(int *)p;
    246f:	test   %rax,%rax
    2472:	jne    2442 <putname+0x52>
    2474:	nopl   0x0(%rax)
putname():
/home/lookfiresu/Desktop/my_linux-3.13.0/fs/namei.c:232
{
	if (unlikely(!audit_dummy_context()))
		return audit_putname(name);
	final_putname(name);
}
#endif
    2478:	callq  247d <putname+0x8d>
/home/lookfiresu/Desktop/my_linux-3.13.0/fs/namei.c:233

    247d:	pop    %rbp
    247e:	retq   
    247f:	nop

0000000000002480 <__inode_permission>:
__inode_permission():
/home/lookfiresu/Desktop/my_linux-3.13.0/fs/namei.c:399
 * inode_permission().
 */
int __inode_permission(struct inode *inode, int mask)
{
	int retval;

    2480:	callq  2485 <__inode_permission+0x5>
    2485:	push   %rbp
/home/lookfiresu/Desktop/my_linux-3.13.0/fs/namei.c:402
	if (unlikely(mask & MAY_WRITE)) {
		/*
		 * Nobody gets write access to an immutable file.
    2486:	test   $0x2,%sil
/home/lookfiresu/Desktop/my_linux-3.13.0/fs/namei.c:399
 * inode_permission().
 */
int __inode_permission(struct inode *inode, int mask)
{
	int retval;

    248a:	mov    %rsp,%rbp
    248d:	push   %r13
    248f:	mov    %esi,%r13d
    2492:	push   %r12
    2494:	push   %rbx
    2495:	mov    %rdi,%rbx
/home/lookfiresu/Desktop/my_linux-3.13.0/fs/namei.c:402
	if (unlikely(mask & MAY_WRITE)) {
		/*
		 * Nobody gets write access to an immutable file.
    2498:	jne    2561 <__inode_permission+0xe1>
do_inode_permission():
/home/lookfiresu/Desktop/my_linux-3.13.0/fs/namei.c:374
 */
static inline int do_inode_permission(struct inode *inode, int mask)
{
	if (unlikely(!(inode->i_opflags & IOP_FASTPERM))) {
		if (likely(inode->i_op->permission))
			return inode->i_op->permission(inode, mask);
    249e:	testb  $0x1,0x2(%rbx)
    24a2:	je     2544 <__inode_permission+0xc4>
/home/lookfiresu/Desktop/my_linux-3.13.0/fs/namei.c:383
		inode->i_opflags |= IOP_FASTPERM;
		spin_unlock(&inode->i_lock);
	}
	return generic_permission(inode, mask);
}

    24a8:	mov    %r13d,%esi
    24ab:	mov    %rbx,%rdi
    24ae:	callq  24b3 <__inode_permission+0x33>
    24b3:	mov    %eax,%r12d
__inode_permission():
/home/lookfiresu/Desktop/my_linux-3.13.0/fs/namei.c:411
	}

	retval = do_inode_permission(inode, mask);
	if (retval)
		return retval;

    24b6:	test   %r12d,%r12d
    24b9:	je     24c8 <__inode_permission+0x48>
/home/lookfiresu/Desktop/my_linux-3.13.0/fs/namei.c:423
    return security_inode_permission(inode, mask);
  else
    return 0;
}

/**
    24bb:	pop    %rbx
    24bc:	mov    %r12d,%eax
    24bf:	pop    %r12
    24c1:	pop    %r13
    24c3:	pop    %rbp
    24c4:	retq   
    24c5:	nopl   (%rax)
devcgroup_inode_permission():
/home/lookfiresu/Desktop/my_linux-3.13.0/include/linux/device_cgroup.h:8
#ifdef CONFIG_CGROUP_DEVICE
extern int __devcgroup_inode_permission(struct inode *inode, int mask);
extern int devcgroup_inode_mknod(int mode, dev_t dev);
static inline int devcgroup_inode_permission(struct inode *inode, int mask)
{
	if (likely(!inode->i_rdev))
    24c8:	mov    0x4c(%rbx),%eax
    24cb:	test   %eax,%eax
    24cd:	jne    2520 <__inode_permission+0xa0>
get_current():
/home/lookfiresu/Desktop/my_linux-3.13.0/arch/x86/include/asm/current.h:19

DECLARE_PER_CPU(struct task_struct *, current_task);

static __always_inline struct task_struct *get_current(void)
{
	return this_cpu_read_stable(current_task);
    24cf:	mov    %gs:0x0,%rcx
__inode_permission():
/home/lookfiresu/Desktop/my_linux-3.13.0/fs/namei.c:419
		return retval;

	// return security_inode_permission(inode, mask);
  if (my_strcmp(get_current()->comm, "fs_kthread") != 0)
    return security_inode_permission(inode, mask);
  else
    24d8:	mov    $0x0,%rdx
    24df:	add    $0x4a8,%rcx
    24e6:	jmp    24f5 <__inode_permission+0x75>
    24e8:	nopl   0x0(%rax,%rax,1)
my_strcmp():
/home/lookfiresu/Desktop/my_linux-3.13.0/include/linux/interactive_design.h:15
			return c1 < c2 ? -1 : 1;
		if (!c1)
    24f0:	test   %r8b,%r8b
    24f3:	je     24bb <__inode_permission+0x3b>
/home/lookfiresu/Desktop/my_linux-3.13.0/include/linux/interactive_design.h:11

static int my_strcmp(const char *cs, const char *ct) {
	unsigned char c1, c2;

	while (1) {
		c1 = *cs++;
    24f5:	add    $0x1,%rcx
    24f9:	movzbl -0x1(%rcx),%r8d
/home/lookfiresu/Desktop/my_linux-3.13.0/include/linux/interactive_design.h:12
		c2 = *ct++;
    24fe:	add    $0x1,%rdx
/home/lookfiresu/Desktop/my_linux-3.13.0/include/linux/interactive_design.h:13
		if (c1 != c2)
    2502:	cmp    -0x1(%rdx),%r8b
    2506:	je     24f0 <__inode_permission+0x70>
__inode_permission():
/home/lookfiresu/Desktop/my_linux-3.13.0/fs/namei.c:420
    return 0;
    2508:	mov    %r13d,%esi
    250b:	mov    %rbx,%rdi
    250e:	callq  2513 <__inode_permission+0x93>
/home/lookfiresu/Desktop/my_linux-3.13.0/fs/namei.c:423
}

/**
    2513:	pop    %rbx
/home/lookfiresu/Desktop/my_linux-3.13.0/fs/namei.c:420

	// return security_inode_permission(inode, mask);
  if (my_strcmp(get_current()->comm, "fs_kthread") != 0)
    return security_inode_permission(inode, mask);
  else
    return 0;
    2514:	mov    %eax,%r12d
/home/lookfiresu/Desktop/my_linux-3.13.0/fs/namei.c:423
}

/**
    2517:	mov    %r12d,%eax
    251a:	pop    %r12
    251c:	pop    %r13
    251e:	pop    %rbp
    251f:	retq   
devcgroup_inode_permission():
/home/lookfiresu/Desktop/my_linux-3.13.0/include/linux/device_cgroup.h:10
		return 0;
	if (!S_ISBLK(inode->i_mode) && !S_ISCHR(inode->i_mode))
    2520:	movzwl (%rbx),%eax
    2523:	and    $0xb000,%ax
    2527:	cmp    $0x2000,%ax
    252b:	jne    24cf <__inode_permission+0x4f>
/home/lookfiresu/Desktop/my_linux-3.13.0/include/linux/device_cgroup.h:12
		return 0;
	return __devcgroup_inode_permission(inode, mask);
    252d:	mov    %r13d,%esi
    2530:	mov    %rbx,%rdi
    2533:	callq  2538 <__inode_permission+0xb8>
__inode_permission():
/home/lookfiresu/Desktop/my_linux-3.13.0/fs/namei.c:415
		return retval;

	retval = devcgroup_inode_permission(inode, mask);
	if (retval)
		return retval;

    2538:	test   %eax,%eax
    253a:	je     24cf <__inode_permission+0x4f>
    253c:	mov    %eax,%r12d
    253f:	jmpq   24bb <__inode_permission+0x3b>
do_inode_permission():
/home/lookfiresu/Desktop/my_linux-3.13.0/fs/namei.c:375
static inline int do_inode_permission(struct inode *inode, int mask)
{
	if (unlikely(!(inode->i_opflags & IOP_FASTPERM))) {
		if (likely(inode->i_op->permission))
			return inode->i_op->permission(inode, mask);

    2544:	mov    0x20(%rbx),%rax
    2548:	mov    0x10(%rax),%rax
    254c:	test   %rax,%rax
    254f:	je     2576 <__inode_permission+0xf6>
/home/lookfiresu/Desktop/my_linux-3.13.0/fs/namei.c:376
		/* This gets set once for the inode lifetime */
    2551:	mov    %r13d,%esi
    2554:	mov    %rbx,%rdi
    2557:	callq  *%rax
    2559:	mov    %eax,%r12d
    255c:	jmpq   24b6 <__inode_permission+0x36>
__inode_permission():
/home/lookfiresu/Desktop/my_linux-3.13.0/fs/namei.c:406
		/*
		 * Nobody gets write access to an immutable file.
		 */
		if (IS_IMMUTABLE(inode))
			return -EACCES;
	}
    2561:	testb  $0x8,0xc(%rdi)
    2565:	je     249e <__inode_permission+0x1e>
/home/lookfiresu/Desktop/my_linux-3.13.0/fs/namei.c:407

    256b:	mov    $0xfffffff3,%r12d
    2571:	jmpq   24bb <__inode_permission+0x3b>
spin_lock():
/home/lookfiresu/Desktop/my_linux-3.13.0/include/linux/spinlock.h:293
	raw_spin_lock_init(&(_lock)->rlock);		\
} while (0)

static inline void spin_lock(spinlock_t *lock)
{
	raw_spin_lock(&lock->rlock);
    2576:	lea    0x88(%rbx),%r12
    257d:	mov    %r12,%rdi
    2580:	callq  2585 <__inode_permission+0x105>
do_inode_permission():
/home/lookfiresu/Desktop/my_linux-3.13.0/fs/namei.c:380

		/* This gets set once for the inode lifetime */
		spin_lock(&inode->i_lock);
		inode->i_opflags |= IOP_FASTPERM;
		spin_unlock(&inode->i_lock);
	}
    2585:	orw    $0x1,0x2(%rbx)
spin_unlock():
/home/lookfiresu/Desktop/my_linux-3.13.0/include/linux/spinlock.h:333
	raw_spin_lock_irqsave_nested(spinlock_check(lock), flags, subclass); \
} while (0)

static inline void spin_unlock(spinlock_t *lock)
{
	raw_spin_unlock(&lock->rlock);
    258a:	mov    %r12,%rdi
    258d:	callq  2592 <__inode_permission+0x112>
    2592:	jmpq   24a8 <__inode_permission+0x28>
__inode_permission():
    2597:	nopw   0x0(%rax,%rax,1)

00000000000025a0 <inode_permission>:
inode_permission():
/home/lookfiresu/Desktop/my_linux-3.13.0/fs/namei.c:458
 * When checking for MAY_APPEND, MAY_WRITE must also be set in @mask.
 */
int inode_permission(struct inode *inode, int mask)
{
	int retval;

    25a0:	callq  25a5 <inode_permission+0x5>
    25a5:	push   %rbp
sb_permission():
/home/lookfiresu/Desktop/my_linux-3.13.0/fs/namei.c:435
 */
static int sb_permission(struct super_block *sb, struct inode *inode, int mask)
{
	if (unlikely(mask & MAY_WRITE)) {
		umode_t mode = inode->i_mode;

    25a6:	test   $0x2,%sil
inode_permission():
/home/lookfiresu/Desktop/my_linux-3.13.0/fs/namei.c:461
{
	int retval;

	retval = sb_permission(inode->i_sb, inode, mask);
	if (retval)
		return retval;
    25aa:	mov    0x28(%rdi),%rax
/home/lookfiresu/Desktop/my_linux-3.13.0/fs/namei.c:458
 * When checking for MAY_APPEND, MAY_WRITE must also be set in @mask.
 */
int inode_permission(struct inode *inode, int mask)
{
	int retval;

    25ae:	mov    %rsp,%rbp
sb_permission():
/home/lookfiresu/Desktop/my_linux-3.13.0/fs/namei.c:435
 */
static int sb_permission(struct super_block *sb, struct inode *inode, int mask)
{
	if (unlikely(mask & MAY_WRITE)) {
		umode_t mode = inode->i_mode;

    25b1:	jne    25ba <inode_permission+0x1a>
inode_permission():
/home/lookfiresu/Desktop/my_linux-3.13.0/fs/namei.c:464
	retval = sb_permission(inode->i_sb, inode, mask);
	if (retval)
		return retval;
	return __inode_permission(inode, mask);
}

    25b3:	callq  25b8 <inode_permission+0x18>
